Archive member included to satisfy reference by file (symbol)

../../../contrib/sdk/lib/libSDLn.a(SDL.o)
                              sdl.o (SDL_InitSubSystem)
../../../contrib/sdk/lib/libSDLn.a(SDL_error.o)
                              ../../../contrib/sdk/lib/libSDLn.a(SDL.o) (SDL_SetError)
../../../contrib/sdk/lib/libSDLn.a(SDL_fatal.o)
                              ../../../contrib/sdk/lib/libSDLn.a(SDL.o) (SDL_InstallParachute)
../../../contrib/sdk/lib/libSDLn.a(SDL_getenv.o)
                              ../../../contrib/sdk/lib/libSDLn.a(SDL.o) (SDL_getenv)
../../../contrib/sdk/lib/libSDLn.a(SDL_kolibri_audio.o)
                              ../../../contrib/sdk/lib/libSDLn.a(SDL.o) (SDL_AudioInit)
../../../contrib/sdk/lib/libSDLn.a(SDL_events.o)
                              sdl.o (SDL_PollEvent)
../../../contrib/sdk/lib/libSDLn.a(SDL_keyboard.o)
                              ../../../contrib/sdk/lib/libSDLn.a(SDL_events.o) (SDL_KeyboardInit)
../../../contrib/sdk/lib/libSDLn.a(SDL_mouse.o)
                              ../../../contrib/sdk/lib/libSDLn.a(SDL_events.o) (SDL_MouseInit)
../../../contrib/sdk/lib/libSDLn.a(SDL_quit.o)
                              ../../../contrib/sdk/lib/libSDLn.a(SDL_events.o) (SDL_QuitInit)
../../../contrib/sdk/lib/libSDLn.a(SDL_sysmutex.o)
                              ../../../contrib/sdk/lib/libSDLn.a(SDL_events.o) (SDL_CreateMutex)
../../../contrib/sdk/lib/libSDLn.a(SDL_syssem.o)
                              ../../../contrib/sdk/lib/libSDLn.a(SDL_sysmutex.o) (SDL_CreateSemaphore)
../../../contrib/sdk/lib/libSDLn.a(SDL_systhread.o)
                              ../../../contrib/sdk/lib/libSDLn.a(SDL_events.o) (SDL_ThreadID)
../../../contrib/sdk/lib/libSDLn.a(SDL_thread.o)
                              ../../../contrib/sdk/lib/libSDLn.a(SDL_events.o) (SDL_CreateThread)
../../../contrib/sdk/lib/libSDLn.a(SDL_timer.o)
                              ../../../contrib/sdk/lib/libSDLn.a(SDL_events.o) (SDL_SetTimerThreaded)
../../../contrib/sdk/lib/libSDLn.a(SDL_systimer.o)
                              ../../../contrib/sdk/lib/libSDLn.a(SDL.o) (SDL_StartTicks)
../../../contrib/sdk/lib/libSDLn.a(SDL_cursor.o)
                              sdl.o (SDL_ShowCursor)
../../../contrib/sdk/lib/libSDLn.a(SDL_pixels.o)
                              ../../../contrib/sdk/lib/libSDLn.a(SDL_cursor.o) (SDL_MapRGB)
../../../contrib/sdk/lib/libSDLn.a(SDL_surface.o)
                              sdl.o (SDL_LockSurface)
../../../contrib/sdk/lib/libSDLn.a(SDL_video.o)
                              sdl.o (SDL_VideoDriverName)
../../../contrib/sdk/lib/libSDLn.a(SDL_kolibri_video.o)
                              ../../../contrib/sdk/lib/libSDLn.a(SDL_video.o) (kos_video_bootstrab)
../../../contrib/sdk/lib/libSDLn.a(SDL_active.o)
                              ../../../contrib/sdk/lib/libSDLn.a(SDL_events.o) (SDL_AppActiveInit)
../../../contrib/sdk/lib/libSDLn.a(SDL_resize.o)
                              ../../../contrib/sdk/lib/libSDLn.a(SDL_video.o) (SDL_PrivateResize)
../../../contrib/sdk/lib/libSDLn.a(SDL_RLEaccel.o)
                              ../../../contrib/sdk/lib/libSDLn.a(SDL_pixels.o) (SDL_UnRLESurface)
../../../contrib/sdk/lib/libSDLn.a(SDL_blit.o)
                              ../../../contrib/sdk/lib/libSDLn.a(SDL_pixels.o) (SDL_CalculateBlit)
../../../contrib/sdk/lib/libSDLn.a(SDL_blit_0.o)
                              ../../../contrib/sdk/lib/libSDLn.a(SDL_blit.o) (SDL_CalculateBlit0)
../../../contrib/sdk/lib/libSDLn.a(SDL_blit_1.o)
                              ../../../contrib/sdk/lib/libSDLn.a(SDL_blit.o) (SDL_CalculateBlit1)
../../../contrib/sdk/lib/libSDLn.a(SDL_blit_N.o)
                              ../../../contrib/sdk/lib/libSDLn.a(SDL_blit.o) (SDL_CalculateBlitN)
../../../contrib/sdk/lib/libSDLn.a(SDL_kolibri_events.o)
                              ../../../contrib/sdk/lib/libSDLn.a(SDL_kolibri_video.o) (kos_InitOSKeymap)
../../../contrib/sdk/lib/libSDLn.a(mmx_main.o)
                              ../../../contrib/sdk/lib/libSDLn.a(SDL_blit_N.o) (ConvertMMX)
../../../contrib/sdk/lib/libSDLn.a(mmxp2_32.o)
                              ../../../contrib/sdk/lib/libSDLn.a(SDL_blit_N.o) (ConvertMMXpII32_16RGB565)
../../../contrib/sdk/lib/libSDLn.a(x86_main.o)
                              ../../../contrib/sdk/lib/libSDLn.a(SDL_blit_N.o) (ConvertX86)
../../../contrib/sdk/lib/libSDLn.a(x86p_16.o)
                              ../../../contrib/sdk/lib/libSDLn.a(SDL_blit_N.o) (ConvertX86p16_16BGR565)
../../../contrib/sdk/lib/libSDLn.a(x86p_32.o)
                              ../../../contrib/sdk/lib/libSDLn.a(SDL_blit_N.o) (ConvertX86p32_32BGR888)
../../../contrib/sdk/lib/libSDLn.a(SDL_blit_A.o)
                              ../../../contrib/sdk/lib/libSDLn.a(SDL_blit_N.o) (SDL_CalculateAlphaBlit)
../../develop/sdk/trunk/sound/src/sound.lib(init.obj)
                              ../../../contrib/sdk/lib/libSDLn.a(SDL_kolibri_audio.o) (InitSound@4)
../../develop/sdk/trunk/sound/src/sound.lib(setbuf.obj)
                              ../../../contrib/sdk/lib/libSDLn.a(SDL_kolibri_audio.o) (SetBuffer@16)
../../develop/sdk/trunk/sound/src/sound.lib(sndgetsize.obj)
                              ../../../contrib/sdk/lib/libSDLn.a(SDL_kolibri_audio.o) (GetBufferSize@8)
../../develop/sdk/trunk/sound/src/sound.lib(stopbuf.obj)
                              ../../../contrib/sdk/lib/libSDLn.a(SDL_kolibri_audio.o) (StopBuffer@4)
../../../contrib/sdk/lib/libgcc.a(_start.o)
                              (_start)
../../../contrib/sdk/lib/libgcc.a(__main.o)
                              main.o (__main)
../../../contrib/sdk/lib/libgcc.a(_ctors.o)
                              ../../../contrib/sdk/lib/libgcc.a(__main.o) (__DTOR_LIST__)
../../../contrib/sdk/lib/libgcc.a(kos32-app.o)
                              ../../../contrib/sdk/lib/libgcc.a(_start.o) (__crt_startup)
../../../contrib/sdk/lib/libgcc.a(libc-loader.o)
                              ../../../contrib/sdk/lib/libgcc.a(kos32-app.o) (get_entry_point)
../../../contrib/sdk/lib/libgcc.a(unwind-dw2-fde.o)
                              ../../../contrib/sdk/lib/libgcc.a(__main.o) (__register_frame_info)
../../../contrib/sdk/lib/libgcc.a(gthr-kos32.o)
                              ../../../contrib/sdk/lib/libgcc.a(unwind-dw2-fde.o) (__gthr_kos32_once)
../../../contrib/sdk/lib/libc.dll.a(d000848.o)
                              ../../../contrib/sdk/lib/libSDLn.a(SDL_error.o) (vsprintf)
../../../contrib/sdk/lib/libc.dll.a(d000847.o)
                              sdl.o (vsnprintf)
../../../contrib/sdk/lib/libc.dll.a(d000842.o)
                              ../../../contrib/sdk/lib/libSDLn.a(SDL_fatal.o) (vprintf)
../../../contrib/sdk/lib/libc.dll.a(d000836.o)
                              md.o (vfprintf)
../../../contrib/sdk/lib/libc.dll.a(d000813.o)
                              md.o (toupper)
../../../contrib/sdk/lib/libc.dll.a(d000807.o)
                              ../../../contrib/sdk/lib/libgcc.a(gthr-kos32.o) (tls_free)
../../../contrib/sdk/lib/libc.dll.a(d000806.o)
                              ../../../contrib/sdk/lib/libgcc.a(gthr-kos32.o) (tls_alloc)
../../../contrib/sdk/lib/libc.dll.a(d000785.o)
                              rc.o (strtol)
../../../contrib/sdk/lib/libc.dll.a(d000783.o)
                              md.o (strtok)
../../../contrib/sdk/lib/libc.dll.a(d000779.o)
                              rc.o (strspn)
../../../contrib/sdk/lib/libc.dll.a(d000773.o)
                              system.o (strncpy)
../../../contrib/sdk/lib/libc.dll.a(d000772.o)
                              system.o (strncmp)
../../../contrib/sdk/lib/libc.dll.a(d000770.o)
                              system.o (strncasecmp)
../../../contrib/sdk/lib/libc.dll.a(d000768.o)
                              system.o (strlen)
../../../contrib/sdk/lib/libc.dll.a(d000763.o)
                              romload.o (strerror)
../../../contrib/sdk/lib/libc.dll.a(d000762.o)
                              system.o (strdup)
../../../contrib/sdk/lib/libc.dll.a(d000761.o)
                              rc.o (strcspn)
../../../contrib/sdk/lib/libc.dll.a(d000760.o)
                              ../../../contrib/sdk/lib/libSDLn.a(SDL_video.o) (strcpy)
../../../contrib/sdk/lib/libc.dll.a(d000758.o)
                              system.o (strcmp)
../../../contrib/sdk/lib/libc.dll.a(d000756.o)
                              system.o (strchr)
../../../contrib/sdk/lib/libc.dll.a(d000753.o)
                              rc.o (strcasecmp)
../../../contrib/sdk/lib/libc.dll.a(d000750.o)
                              system.o (stat)
../../../contrib/sdk/lib/libc.dll.a(d000749.o)
                              sdl.o (sscanf)
../../../contrib/sdk/lib/libc.dll.a(d000743.o)
                              ../../../contrib/sdk/lib/libSDLn.a(SDL_error.o) (sprintf)
../../../contrib/sdk/lib/libc.dll.a(d000742.o)
                              system.o (snprintf)
../../../contrib/sdk/lib/libc.dll.a(d000695.o)
                              system.o (realloc)
../../../contrib/sdk/lib/libc.dll.a(d000694.o)
                              system.o (readdir)
../../../contrib/sdk/lib/libc.dll.a(d000680.o)
                              system.o (puts)
../../../contrib/sdk/lib/libc.dll.a(d000675.o)
                              system.o (printf)
../../../contrib/sdk/lib/libc.dll.a(d000668.o)
                              system.o (opendir)
../../../contrib/sdk/lib/libc.dll.a(d000649.o)
                              system.o (mkdir)
../../../contrib/sdk/lib/libc.dll.a(d000645.o)
                              system.o (memmove)
../../../contrib/sdk/lib/libc.dll.a(d000643.o)
                              romload.o (memcpy)
../../../contrib/sdk/lib/libc.dll.a(d000642.o)
                              romload.o (memcmp)
../../../contrib/sdk/lib/libc.dll.a(d000629.o)
                              system.o (malloc)
../../../contrib/sdk/lib/libc.dll.a(d000564.o)
                              rc.o (isprint)
../../../contrib/sdk/lib/libc.dll.a(d000558.o)
                              rc.o (isgraph)
../../../contrib/sdk/lib/libc.dll.a(d000510.o)
                              main.o (fwrite)
../../../contrib/sdk/lib/libc.dll.a(d000506.o)
                              system.o (ftello)
../../../contrib/sdk/lib/libc.dll.a(d000502.o)
                              system.o (fseeko)
../../../contrib/sdk/lib/libc.dll.a(d000501.o)
                              sdl.o (fseek)
../../../contrib/sdk/lib/libc.dll.a(d000497.o)
                              system.o (freopen)
../../../contrib/sdk/lib/libc.dll.a(d000496.o)
                              system.o (free)
../../../contrib/sdk/lib/libc.dll.a(d000494.o)
                              system.o (fread)
../../../contrib/sdk/lib/libc.dll.a(d000488.o)
                              rc.o (fputs)
../../../contrib/sdk/lib/libc.dll.a(d000486.o)
                              rc.o (fputc)
../../../contrib/sdk/lib/libc.dll.a(d000484.o)
                              romload.o (fprintf)
../../../contrib/sdk/lib/libc.dll.a(d000482.o)
                              system.o (fopen)
../../../contrib/sdk/lib/libc.dll.a(d000439.o)
                              romload.o (fclose)
../../../contrib/sdk/lib/libc.dll.a(d000427.o)
                              main.o (exit)
../../../contrib/sdk/lib/libc.dll.a(d000379.o)
                              system.o (closedir)
../../../contrib/sdk/lib/libc.dll.a(d000368.o)
                              fm.o (calloc)
../../../contrib/sdk/lib/libc.dll.a(d000360.o)
                              main.o (atoi)
../../../contrib/sdk/lib/libc.dll.a(d000358.o)
                              rc.o (atexit)
../../../contrib/sdk/lib/libc.dll.a(d000334.o)
                              mdfr.o (abort)
../../../contrib/sdk/lib/libc.dll.a(d000126.o)
                              fm.o (_f_pow)
../../../contrib/sdk/lib/libc.dll.a(d000082.o)
                              font.o (__swbuf_r)
../../../contrib/sdk/lib/libc.dll.a(d000017.o)
                              romload.o (__errno)
../../../contrib/sdk/lib/libc.dll.a(d000012.o)
                              system.o (_imp____ctype_ptr__)
../../../contrib/sdk/lib/libc.dll.a(d000006.o)
                              ckvp.o (__assert_func)
../../../contrib/sdk/lib/libc.dll.a(d000000.o)
                              ../../../contrib/sdk/lib/libc.dll.a(d000848.o) (_head_libc_dll)
../../../contrib/sdk/lib/libc.dll.a(d000911.o)
                              ../../../contrib/sdk/lib/libc.dll.a(d000000.o) (libc_dll_iname)

Allocating common symbols
Common symbol       size              file

CZ80                0x94              cz80.o
m68ki_aerr_address  0x4               m68kcpu.o
SDL_KeyRepeat       0x24              ../../../contrib/sdk/lib/libSDLn.a(SDL_keyboard.o)
m68ki_initial_cycles
                    0x4               m68kcpu.o
m68ki_address_space
                    0x4               m68kcpu.o
__CTOR_LIST__       0x8               ../../../contrib/sdk/lib/libgcc.a(_ctors.o)
m68ki_aerr_write_mode
                    0x4               m68kcpu.o
SDL_alarm_callback  0x4               ../../../contrib/sdk/lib/libSDLn.a(SDL_timer.o)
m68ki_aerr_fc       0x4               m68kcpu.o
m68ki_cycles        0x40000           m68kops.o
m68ki_instruction_jump_table
                    0x40000           m68kops.o
m68ki_cpu           0x170             m68kcpu.o
SDL_ProcessEvents   0x20              ../../../contrib/sdk/lib/libSDLn.a(SDL_events.o)
__DTOR_LIST__       0x8               ../../../contrib/sdk/lib/libgcc.a(_ctors.o)

Discarded input sections

 .drectve       0x0000000000000000       0x18 cz80.o
 .drectve       0x0000000000000000       0xcc m68kcpu.o
 .drectve       0x0000000000000000       0x4c m68kops.o
 .drectve       0x0000000000000000       0x24 ../../../contrib/sdk/lib/libSDLn.a(SDL_events.o)
 .drectve       0x0000000000000000       0x20 ../../../contrib/sdk/lib/libSDLn.a(SDL_keyboard.o)
 .drectve       0x0000000000000000       0x24 ../../../contrib/sdk/lib/libSDLn.a(SDL_timer.o)
 .drectve       0x0000000000000000       0x3c ../../../contrib/sdk/lib/libgcc.a(_ctors.o)

Memory Configuration

Name             Origin             Length             Attributes
*default*        0x0000000000000000 0xffffffffffffffff

Linker script and memory map

                0x0000000000000000                __image_base__ = 0x0
                0x0000000000000000                __dll__ = 0x0
                0x0000000000000000                ___ImageBase = 0x0
                0x0000000000000010                __section_alignment__ = 0x10
                0x0000000000000010                __file_alignment__ = 0x10
                0x0000000000000004                __major_os_version__ = 0x4
                0x0000000000000000                __minor_os_version__ = 0x0
                0x0000000000000001                __major_image_version__ = 0x1
                0x0000000000000000                __minor_image_version__ = 0x0
                0x0000000000000004                __major_subsystem_version__ = 0x4
                0x0000000000000000                __minor_subsystem_version__ = 0x0
                0x0000000000000001                __subsystem__ = 0x1
                0x0000000000200000                __size_of_stack_reserve__ = 0x200000
                0x0000000000001000                __size_of_stack_commit__ = 0x1000
                0x0000000000100000                __size_of_heap_reserve__ = 0x100000
                0x0000000000001000                __size_of_heap_commit__ = 0x1000
                0x0000000000000000                __loader_flags__ = 0x0
                0x0000000000000000                __dll_characteristics__ = 0x0

.text           0x0000000000000000   0x104770
                0x0000000000000000        0x4 LONG 0x554e454d
                0x0000000000000004        0x4 LONG 0x32305445
                0x0000000000000008        0x4 LONG 0x1
                0x000000000000000c        0x4 LONG 0x34 __start
                0x0000000000000010        0x4 LONG 0x14c938 ___iend
                0x0000000000000014        0x4 LONG 0x25d470 ___memsize
                0x0000000000000018        0x4 LONG 0x25d470 ___stacktop
                0x000000000000001c        0x4 LONG 0x25cf60 ___cmdline
                0x0000000000000020        0x4 LONG 0x25d060 ___pgmname
                0x0000000000000024        0x4 LONG 0x1 __subsystem__
                0x0000000000000028        0x4 LONG 0x14d170 __idata_start
                0x000000000000002c        0x4 LONG 0x14d72c __idata_end
                0x0000000000000030        0x4 LONG 0x103630 _main
 *(.init)
 .init          0x0000000000000034       0x84 ../../../contrib/sdk/lib/libgcc.a(_start.o)
                0x0000000000000034                _start
 *(.text)
 *fill*         0x00000000000000b8        0x8 
 .text          0x00000000000000c0      0x2b0 romload.o
                0x00000000000000c0                set_rom_path
                0x00000000000000d0                load_rom
                0x0000000000000360                unload_rom
 .text          0x0000000000000370      0x320 ckvp.o
                0x0000000000000370                ckvp_parse
 .text          0x0000000000000690     0x1220 system.o
                0x0000000000000a20                path_type
                0x0000000000000a40                dgen_userdir
                0x0000000000000ac0                dgen_dir
                0x0000000000000ba0                dgen_freopen
                0x0000000000000e70                dgen_fopen
                0x0000000000000e90                dgen_basename
                0x0000000000000ec0                unload
                0x0000000000000f20                load_finish
                0x0000000000000f30                load
                0x00000000000011b0                complete_path
                0x00000000000013d0                complete_path_free
                0x0000000000001410                backslashify
                0x0000000000001630                utf8u32
                0x0000000000001730                utf32u8
                0x00000000000017f0                prefix_casematch
                0x0000000000001860                prefix_getuint
 .text          0x00000000000018b0     0x5aa0 fm.o
                0x0000000000002cb0                YM2612UpdateOne
                0x00000000000060a0                YM2612Shutdown
                0x00000000000060c0                YM2612ResetChip
                0x00000000000065e0                YM2612Init
                0x0000000000006950                YM2612Write
                0x0000000000006e80                YM2612Read
                0x0000000000006ea0                YM2612TimerOver
                0x0000000000007240                YM2612_dump
                0x0000000000007270                YM2612_restore
 .text          0x0000000000007350      0x340 decode.o
                0x0000000000007350                genie_decode
                0x0000000000007480                hex_decode
                0x0000000000007520                decode
 .text          0x0000000000007690      0x2c0 main.o
                0x0000000000007750                md_save(md&)
                0x0000000000007830                md_load(md&)
                0x0000000000007910                ram_save(md&)
                0x0000000000007930                ram_load(md&)
 .text          0x0000000000007950       0x50 joystick.o
                0x0000000000007950                md::init_joysticks()
                0x0000000000007960                md::deinit_joysticks()
                0x0000000000007970                _ksys_sleep
                0x0000000000007980                usleep
 .text          0x00000000000079a0     0x16d0 mdfr.o
                0x00000000000079a0                md::md_set_musa_sync(bool)
                0x0000000000007aa0                md::md_set_musa(bool)
                0x0000000000007b20                md::md_set_star_sync(bool)
                0x0000000000007be0                md::md_set_star(bool)
                0x0000000000007c60                md::md_set_cz80_sync(bool)
                0x0000000000007ea0                md::md_set_cz80(bool)
                0x0000000000007f00                md::md_set_mz80_sync(bool)
                0x00000000000080b0                md::md_set_mz80(bool)
                0x0000000000008130                md::md_set(bool)
                0x00000000000081c0                md::m68k_read_pc()
                0x0000000000008270                md::m68k_odo()
                0x00000000000082c0                md::m68k_run()
                0x0000000000008360                md::m68k_irq(int)
                0x0000000000008400                md::m68k_vdp_irq_trigger()
                0x0000000000008470                md::m68k_vdp_irq_handler()
                0x00000000000084d0                md::z80_odo()
                0x0000000000008530                md::z80_run()
                0x00000000000085e0                md::z80_sync(int)
                0x00000000000086a0                md::m68k_busreq_request()
                0x00000000000086d0                md::m68k_busreq_cancel()
                0x0000000000008700                md::z80_irq(int)
                0x0000000000008760                md::z80_irq_clear()
                0x00000000000087a0                md::frame_usecs()
                0x0000000000008800                md::vblank()
                0x0000000000008830                md::pad_update()
                0x0000000000008880                md::calculate_coo8()
                0x0000000000008910                md::calculate_coo9()
                0x0000000000008960                md::may_want_to_get_sound(sndinfo*)
                0x0000000000008b00                md::one_frame(bmap*, unsigned char*, sndinfo*)
 .text          0x0000000000009070     0x1880 rc.o
                0x0000000000009070                rc_region(char const*, int*)
                0x00000000000090c0                rc_ctv(char const*, int*)
                0x0000000000009100                rc_scaling(char const*, int*)
                0x0000000000009140                rc_emu_z80(char const*, int*)
                0x0000000000009180                rc_emu_m68k(char const*, int*)
                0x00000000000091c0                rc_keysym(char const*, int*)
                0x00000000000092a0                rc_string(char const*, int*)
                0x00000000000092c0                rc_rom_path(char const*, int*)
                0x0000000000009300                rc_number(char const*, int*)
                0x0000000000009320                rc_soundrate(char const*, int*)
                0x0000000000009350                rc_bind(char const*, int*)
                0x0000000000009480                rc_str_cleanup()
                0x0000000000009510                rc_boolean(char const*, int*)
                0x00000000000097a0                rc_joypad(char const*, int*)
                0x00000000000098d0                rc_mouse(char const*, int*)
                0x0000000000009980                dump_keysym(int)
                0x0000000000009ac0                dump_joypad(int)
                0x0000000000009c30                dump_mouse(int)
                0x0000000000009d10                rc_binding_add(char const*, char const*)
                0x0000000000009fa0                rc_binding_del(rc_field*)
                0x000000000000a140                parse_rc(__sFILE*, char const*)
                0x000000000000a5a0                dump_rc(__sFILE*)
 .text          0x000000000000a8f0      0x570 myfm.o
                0x000000000000a970                md::myfm_write(int, int, int)
                0x000000000000ab40                md::mysn_write(int)
                0x000000000000ab60                md::fm_timer_callback()
                0x000000000000ac40                md::myfm_read(int)
                0x000000000000ac80                md::fm_reset()
                0x000000000000ad90                md::dac_init()
                0x000000000000ae10                md::dac_submit(unsigned char)
                0x000000000000ae50                md::dac_enable(unsigned char)
 .text          0x000000000000ae60       0x50 graph.o
                0x000000000000ae60                get_md_palette(unsigned char*, unsigned char*)
 .text          0x000000000000aeb0     0x2330 md.o
                0x000000000000af00                star_irq_callback()
                0x000000000000af30                musa_irq_callback(int)
                0x000000000000af70                md::memory_map()
                0x000000000000b460                md::musa_memory_map()
                0x000000000000b760                md::z80_init()
                0x000000000000b870                md::z80_reset()
                0x000000000000b8b0                md::reset()
                0x000000000000bb40                md::init_sound()
                0x000000000000bc20                md::init_pal()
                0x000000000000bcc0                md::md(bool, char)
                0x000000000000bcc0                md::md(bool, char)
                0x000000000000c4b0                byteswap_memory(unsigned char*, int)
                0x000000000000c4e0                md::plug_in(unsigned char*, int)
                0x000000000000c680                md::region_guess()
                0x000000000000c760                md::unplug()
                0x000000000000c980                md::~md()
                0x000000000000c980                md::~md()
                0x000000000000cae0                md::load(char const*)
                0x000000000000cda0                md::cycle_z80()
                0x000000000000cdd0                md::cycle_cpu()
                0x000000000000ce00                md::z80dump()
                0x000000000000ce40                md::patch(char const*, unsigned int*, unsigned int*, unsigned int*)
                0x000000000000d100                md::get_save_ram(__sFILE*)
                0x000000000000d130                md::put_save_ram(__sFILE*)
                0x000000000000d160                md::fix_rom_checksum()
 .text          0x000000000000d1e0      0xed0 mem.o
                0x000000000000d220                md::z80_port_read(unsigned short)
                0x000000000000d230                md::z80_port_write(unsigned short, unsigned char)
                0x000000000000d240                md::m68k_ROM_read(unsigned int)
                0x000000000000d290                md::m68k_VDP_read(unsigned int)
                0x000000000000d320                md::misc_readbyte(unsigned int)
                0x000000000000d380                md::z80_read(unsigned short)
                0x000000000000d3e0                md::m68k_IO_read(unsigned int)
                0x000000000000d6c0                md::m68k_ROM_write(unsigned int, unsigned char)
                0x000000000000d6f0                md::misc_readword(unsigned int)
                0x000000000000d800                md::misc_writeword(unsigned int, unsigned short)
                0x000000000000d9a0                md::misc_writebyte(unsigned int, unsigned char)
                0x000000000000da80                md::z80_write(unsigned short, unsigned char)
                0x000000000000db60                md::m68k_IO_write(unsigned int, unsigned char)
                0x000000000000dd70                m68k_read_memory_32
                0x000000000000ddb0                m68k_read_immediate_8
                0x000000000000ddd0                m68k_read_memory_8
                0x000000000000dde0                m68k_read_immediate_32
                0x000000000000ddf0                m68k_read_instruction
                0x000000000000de10                m68k_read_immediate_16
                0x000000000000de20                m68k_read_memory_16
                0x000000000000de30                m68k_write_memory_8
                0x000000000000de50                m68k_write_memory_16
                0x000000000000de70                m68k_write_memory_32
                0x000000000000deb0                star_readbyte
                0x000000000000ded0                star_readword
                0x000000000000def0                star_writebyte
                0x000000000000df10                star_writeword
                0x000000000000df40                mz80_read
                0x000000000000df60                mz80_write
                0x000000000000df90                mz80_ioread
                0x000000000000dfb0                mz80_iowrite
                0x000000000000dfc0                cz80_memread
                0x000000000000dfe0                cz80_memwrite
                0x000000000000e000                cz80_memread16
                0x000000000000e040                cz80_memwrite16
                0x000000000000e090                cz80_ioread
                0x000000000000e0a0                cz80_iowrite
 .text          0x000000000000e0b0     0x1f10 ras.o
                0x000000000000e0b0                md_vdp::draw_window(int, int)
                0x000000000000e280                md_vdp::sprite_masking_overflow(int)
                0x000000000000e470                md_vdp::sprite_mask_generate()
                0x000000000000e830                md_vdp::draw_sprites(int, bool)
                0x000000000000ee80                md_vdp::draw_plane_back0(int)
                0x000000000000f1c0                md_vdp::draw_plane_back1(int)
                0x000000000000f4b0                md_vdp::draw_plane_front0(int)
                0x000000000000f7f0                md_vdp::draw_plane_front1(int)
                0x000000000000fb00                md_vdp::draw_scanline(bmap*, int)
                0x000000000000fef0                md_vdp::draw_pixel(bmap*, int, int, unsigned int)
 .text          0x000000000000ffc0      0xb20 vdp.o
                0x000000000000ffc0                md_vdp::reset()
                0x00000000000102d0                md_vdp::md_vdp(md&)
                0x00000000000102d0                md_vdp::md_vdp(md&)
                0x0000000000010320                md_vdp::~md_vdp()
                0x0000000000010320                md_vdp::~md_vdp()
                0x0000000000010330                md_vdp::dma_len()
                0x0000000000010350                md_vdp::dma_addr()
                0x0000000000010380                md_vdp::dma_mem_read(int)
                0x0000000000010390                md_vdp::poke_vram(int, unsigned char)
                0x00000000000103f0                md_vdp::poke_cram(int, unsigned char)
                0x0000000000010450                md_vdp::poke_vsram(int, unsigned char)
                0x0000000000010480                md_vdp::putword(unsigned short)
                0x00000000000105c0                md_vdp::putbyte(unsigned char)
                0x0000000000010670                md_vdp::readword()
                0x0000000000010730                md_vdp::readbyte()
                0x0000000000010790                md_vdp::command(unsigned short)
                0x0000000000010960                md_vdp::writeword(unsigned short)
                0x00000000000109f0                md_vdp::writebyte(unsigned char)
                0x0000000000010a80                md_vdp::write_reg(unsigned char, unsigned char)
 .text          0x0000000000010ae0      0xba0 save.o
                0x0000000000010ae0                md::m68k_state_dump()
                0x0000000000010b70                md::m68k_state_restore()
                0x0000000000010c00                md::z80_state_dump()
                0x0000000000010cb0                md::z80_state_restore()
                0x0000000000010d70                md::import_gst(__sFILE*)
                0x0000000000011300                md::export_gst(__sFILE*)
 .text          0x0000000000011680      0xa10 getopt.o
                0x0000000000011730                getenv
                0x0000000000011740                _getopt_internal
                0x0000000000012030                getopt
                0x0000000000012060                getopt_long
 .text          0x0000000000012090      0x9c0 sn76496.o
                0x0000000000012090                SN76496_dump
                0x00000000000120c0                SN76496_restore
                0x00000000000120f0                SN76496Write
                0x0000000000012300                SN76496_0_w
                0x0000000000012310                SN76496_1_w
                0x0000000000012320                SN76496_2_w
                0x0000000000012330                SN76496_3_w
                0x0000000000012340                SN76496Update_8_2
                0x00000000000125e0                SN76496Update_16_2
                0x0000000000012870                SN76496_set_clock
                0x00000000000128c0                SN76496_init
                0x0000000000012a40                SN76496_sh_start
 .text          0x0000000000012a50       0x40 cpp_dep.o
                0x0000000000012a50                operator new(unsigned int)
                0x0000000000012a60                operator new[](unsigned int)
                0x0000000000012a70                operator delete(void*)
                0x0000000000012a80                operator delete[](void*)
 .text          0x0000000000012a90      0x3d0 font.o
                0x0000000000012a90                font_select(unsigned int, unsigned int, font_type)
                0x0000000000012b10                font_text_width(char const*, unsigned int, unsigned int, unsigned int, font_type)
                0x0000000000012b60                font_text_max_len(unsigned int, unsigned int, font_type)
                0x0000000000012ba0                font_text(unsigned char*, unsigned int, unsigned int, unsigned int, unsigned int, char const*, unsigned int, unsigned int, font_type)
 .text          0x0000000000012e60        0x0 dgenfont_8x13.o
 .text          0x0000000000012e60     0xb730 sdl.o
                0x0000000000018ae0                cbuf_write(cbuf_t*, unsigned char*, unsigned int)
                0x0000000000018bc0                cbuf_read(unsigned char*, cbuf_t*, unsigned int)
                0x0000000000018ce0                pd_usecs()
                0x0000000000018d00                pd_help()
                0x0000000000018d20                pd_rc()
                0x0000000000018d40                pd_option(char, char const*)
                0x0000000000018e10                pd_graphics_palette_update()
                0x0000000000018e60                pd_graphics_update(bool)
                0x0000000000019bb0                pd_graphics_init(int, int, int)
                0x0000000000019f80                pd_graphics_reinit(int, int, int)
                0x000000000001a1f0                pd_sound_deinit()
                0x000000000001a250                pd_sound_init(long&, unsigned int&)
                0x000000000001a490                pd_sound_rp()
                0x000000000001a4c0                pd_sound_wp()
                0x000000000001a500                pd_sound_write()
                0x000000000001a540                pd_stopped()
                0x000000000001a550                pd_message(char const*, ...)
                0x000000000001c460                pd_handle_events(md&)
                0x000000000001df30                pd_clear_message()
                0x000000000001df50                pd_show_carthead(md&)
                0x000000000001e490                pd_quit()
 .text          0x000000000001e590        0x0 dgenfont_16x26.o
 .text          0x000000000001e590        0x0 dgenfont_7x5.o
 .text          0x000000000001e590      0xee0 prompt.o
                0x000000000001e590                prompt_parse_clean
                0x000000000001e650                prompt_parse
                0x000000000001ed30                prompt_init
                0x000000000001eda0                prompt_push
                0x000000000001ef10                prompt_older
                0x000000000001efa0                prompt_newer
                0x000000000001f030                prompt_put
                0x000000000001f110                prompt_delete
                0x000000000001f1a0                prompt_replace
                0x000000000001f300                prompt_left
                0x000000000001f310                prompt_right
                0x000000000001f370                prompt_begin
                0x000000000001f380                prompt_end
                0x000000000001f3e0                prompt_clear
                0x000000000001f450                prompt_backspace
 .text          0x000000000001f470     0x18b0 scalebit.o
                0x000000000001f470                scale_precondition
                0x000000000001f4e0                scale
 .text          0x0000000000020d20     0x65a0 scale2x.o
                0x0000000000020d20                scale2x_8_def
                0x0000000000020fd0                scale2x_16_def
                0x00000000000212b0                scale2x_32_def
                0x00000000000215b0                scale2x3_8_def
                0x0000000000021a80                scale2x3_16_def
                0x0000000000021fd0                scale2x3_32_def
                0x00000000000224d0                scale2x4_8_def
                0x0000000000022bb0                scale2x4_16_def
                0x0000000000023360                scale2x4_32_def
                0x0000000000023a90                scale2x_8_mmx
                0x0000000000023e90                scale2x_16_mmx
                0x0000000000024290                scale2x_32_mmx
                0x0000000000024690                scale2x3_8_mmx
                0x0000000000024cb0                scale2x3_16_mmx
                0x0000000000025320                scale2x3_32_mmx
                0x0000000000025930                scale2x4_8_mmx
                0x0000000000026190                scale2x4_16_mmx
                0x0000000000026a70                scale2x4_32_mmx
 .text          0x00000000000272c0     0x1180 scale3x.o
                0x00000000000272c0                scale3x_8_def
                0x0000000000027850                scale3x_16_def
                0x0000000000027e60                scale3x_32_def
 .text          0x0000000000028440     0x5420 cz80.o
                0x0000000000028440                Cz80_Read_Dummy
                0x0000000000028450                Cz80_Write_Dummy
                0x0000000000028460                Cz80_Interrupt_Ack_Dummy
                0x0000000000028470                Cz80_RetI_Dummy
                0x0000000000028480                Cz80_Init
                0x0000000000028660                Cz80_Reset
                0x00000000000286f0                Cz80_Exec
                0x000000000002d350                Cz80_Set_IRQ
                0x000000000002d370                Cz80_Set_NMI
                0x000000000002d390                Cz80_Clear_IRQ
                0x000000000002d3a0                Cz80_Clear_NMI
                0x000000000002d3b0                Cz80_Get_CycleToDo
                0x000000000002d3d0                Cz80_Get_CycleRemaining
                0x000000000002d3f0                Cz80_Get_CycleDone
                0x000000000002d410                Cz80_Release_Cycle
                0x000000000002d430                Cz80_Add_Cycle
                0x000000000002d450                Cz80_Set_Ctx
                0x000000000002d460                Cz80_Read_Byte
                0x000000000002d480                Cz80_Read_Word
                0x000000000002d4a0                Cz80_Write_Byte
                0x000000000002d4d0                Cz80_Write_Word
                0x000000000002d500                Cz80_Set_Fetch
                0x000000000002d550                Cz80_Set_ReadB
                0x000000000002d560                Cz80_Set_WriteB
                0x000000000002d570                Cz80_Set_ReadW
                0x000000000002d580                Cz80_Set_WriteW
                0x000000000002d590                Cz80_Set_INPort
                0x000000000002d5a0                Cz80_Set_OUTPort
                0x000000000002d5b0                Cz80_Set_IRQ_Callback
                0x000000000002d5c0                Cz80_Set_RETI_Callback
                0x000000000002d5d0                Cz80_Get_BC
                0x000000000002d5e0                Cz80_Get_DE
                0x000000000002d5f0                Cz80_Get_HL
                0x000000000002d600                Cz80_Get_AF
                0x000000000002d620                Cz80_Get_BC2
                0x000000000002d630                Cz80_Get_DE2
                0x000000000002d640                Cz80_Get_HL2
                0x000000000002d650                Cz80_Get_AF2
                0x000000000002d670                Cz80_Get_IX
                0x000000000002d680                Cz80_Get_IY
                0x000000000002d690                Cz80_Get_SP
                0x000000000002d6a0                Cz80_Get_PC
                0x000000000002d6b0                Cz80_Get_R
                0x000000000002d6c0                Cz80_Get_IFF
                0x000000000002d6e0                Cz80_Get_IM
                0x000000000002d6f0                Cz80_Get_I
                0x000000000002d700                Cz80_Set_BC
                0x000000000002d710                Cz80_Set_DE
                0x000000000002d720                Cz80_Set_HL
                0x000000000002d730                Cz80_Set_AF
                0x000000000002d750                Cz80_Set_BC2
                0x000000000002d760                Cz80_Set_DE2
                0x000000000002d770                Cz80_Set_HL2
                0x000000000002d780                Cz80_Set_AF2
                0x000000000002d7a0                Cz80_Set_IX
                0x000000000002d7b0                Cz80_Set_IY
                0x000000000002d7c0                Cz80_Set_SP
                0x000000000002d7d0                Cz80_Set_PC
                0x000000000002d7f0                Cz80_Set_R
                0x000000000002d810                Cz80_Set_IFF
                0x000000000002d840                Cz80_Set_IM
                0x000000000002d850                Cz80_Set_I
 .text          0x000000000002d860     0x1630 m68kcpu.o
                0x000000000002e110                m68k_get_reg
                0x000000000002e320                m68k_set_int_ack_callback
                0x000000000002e340                m68k_set_bkpt_ack_callback
                0x000000000002e360                m68k_set_reset_instr_callback
                0x000000000002e380                m68k_set_cmpild_instr_callback
                0x000000000002e3a0                m68k_set_rte_instr_callback
                0x000000000002e3c0                m68k_set_tas_instr_callback
                0x000000000002e3e0                m68k_set_pc_changed_callback
                0x000000000002e400                m68k_set_fc_callback
                0x000000000002e420                m68k_set_instr_hook_callback
                0x000000000002e440                m68k_register_memory
                0x000000000002e460                m68k_set_cpu_type
                0x000000000002e670                m68k_set_reg
                0x000000000002e8b0                m68k_execute
                0x000000000002ea40                m68k_cycles_run
                0x000000000002ea50                m68k_cycles_remaining
                0x000000000002ea60                m68k_modify_timeslice
                0x000000000002ea90                m68k_end_timeslice
                0x000000000002eab0                m68k_set_irq
                0x000000000002eb20                m68k_init
                0x000000000002eba0                m68k_pulse_reset
                0x000000000002ee10                m68k_pulse_halt
                0x000000000002ee20                m68k_context_size
                0x000000000002ee30                m68k_get_context
                0x000000000002ee60                m68k_set_context
 .text          0x000000000002ee90    0x34980 m68kops.o
                0x000000000002ef60                m68k_op_abcd_8_rr
                0x000000000002f020                m68k_op_add_8_er_d
                0x000000000002f090                m68k_op_add_16_er_d
                0x000000000002f100                m68k_op_add_16_er_a
                0x000000000002f170                m68k_op_add_32_er_d
                0x000000000002f1e0                m68k_op_add_32_er_a
                0x000000000002f250                m68k_op_adda_16_d
                0x000000000002f280                m68k_op_adda_16_a
                0x000000000002f2b0                m68k_op_adda_32_d
                0x000000000002f2e0                m68k_op_adda_32_a
                0x000000000002f310                m68k_op_addq_8_d
                0x000000000002f370                m68k_op_addq_16_d
                0x000000000002f3e0                m68k_op_addq_32_d
                0x000000000002f440                m68k_op_addq_32_a
                0x000000000002f470                m68k_op_addq_16_a
                0x000000000002f480                m68k_op_addx_8_rr
                0x000000000002f500                m68k_op_addx_16_rr
                0x000000000002f580                m68k_op_addx_32_rr
                0x000000000002f600                m68k_op_and_8_er_d
                0x000000000002f650                m68k_op_and_16_er_d
                0x000000000002f6b0                m68k_op_and_32_er_d
                0x000000000002f700                m68k_op_asr_8_s
                0x000000000002f790                m68k_op_asr_16_s
                0x000000000002f830                m68k_op_asr_32_s
                0x000000000002f8c0                m68k_op_asr_8_r
                0x000000000002fa10                m68k_op_asr_16_r
                0x000000000002fb70                m68k_op_asr_32_r
                0x000000000002fcd0                m68k_op_asl_8_s
                0x000000000002fd80                m68k_op_asl_16_s
                0x000000000002fe40                m68k_op_asl_32_s
                0x000000000002fee0                m68k_op_asl_8_r
                0x0000000000030010                m68k_op_asl_16_r
                0x0000000000030150                m68k_op_asl_32_r
                0x0000000000030280                m68k_op_bchg_32_r_d
                0x00000000000302c0                m68k_op_bclr_32_r_d
                0x0000000000030300                m68k_op_bra_8
                0x0000000000030330                m68k_op_bra_32
                0x0000000000030360                m68k_op_bset_32_r_d
                0x00000000000303a0                m68k_op_btst_32_r_d
                0x00000000000303d0                m68k_op_clr_8_d
                0x0000000000030420                m68k_op_clr_16_d
                0x0000000000030470                m68k_op_clr_32_d
                0x00000000000304b0                m68k_op_cmp_8_d
                0x0000000000030510                m68k_op_cmp_16_d
                0x0000000000030580                m68k_op_cmp_16_a
                0x00000000000305f0                m68k_op_cmp_32_d
                0x0000000000030650                m68k_op_cmp_32_a
                0x00000000000306b0                m68k_op_cmpa_16_d
                0x0000000000030720                m68k_op_cmpa_16_a
                0x0000000000030790                m68k_op_cmpa_32_d
                0x00000000000307f0                m68k_op_cmpa_32_a
                0x0000000000030850                m68k_op_dbt_16
                0x0000000000030860                m68k_op_eor_8_d
                0x00000000000308c0                m68k_op_eor_16_d
                0x0000000000030920                m68k_op_eor_32_d
                0x0000000000030970                m68k_op_exg_32_dd
                0x00000000000309a0                m68k_op_exg_32_aa
                0x00000000000309e0                m68k_op_exg_32_da
                0x0000000000030a20                m68k_op_ext_16
                0x0000000000030a80                m68k_op_ext_32
                0x0000000000030ad0                m68k_op_jmp_32_ai
                0x0000000000030b00                m68k_op_lsr_8_s
                0x0000000000030b90                m68k_op_lsr_16_s
                0x0000000000030c20                m68k_op_lsr_32_s
                0x0000000000030ca0                m68k_op_lsr_8_r
                0x0000000000030da0                m68k_op_lsr_16_r
                0x0000000000030eb0                m68k_op_lsr_32_r
                0x0000000000030fc0                m68k_op_lsl_8_s
                0x0000000000031040                m68k_op_lsl_16_s
                0x00000000000310d0                m68k_op_lsl_32_s
                0x0000000000031150                m68k_op_lsl_8_r
                0x0000000000031250                m68k_op_lsl_16_r
                0x0000000000031360                m68k_op_lsl_32_r
                0x0000000000031470                m68k_op_move_8_d_d
                0x00000000000314c0                m68k_op_move_16_d_d
                0x0000000000031510                m68k_op_move_16_d_a
                0x0000000000031560                m68k_op_move_32_d_d
                0x00000000000315b0                m68k_op_move_32_d_a
                0x0000000000031600                m68k_op_movea_16_d
                0x0000000000031620                m68k_op_movea_16_a
                0x0000000000031640                m68k_op_movea_32_d
                0x0000000000031660                m68k_op_movea_32_a
                0x0000000000031680                m68k_op_lea_32_ai
                0x0000000000031690                m68k_op_move_16_toc_d
                0x00000000000316f0                m68k_op_move_16_frs_d
                0x00000000000317b0                m68k_op_moveq_32
                0x00000000000317f0                m68k_op_muls_16_d
                0x0000000000031840                m68k_op_mulu_16_d
                0x0000000000031890                m68k_op_nbcd_8_d
                0x0000000000031950                m68k_op_neg_8_d
                0x00000000000319a0                m68k_op_neg_16_d
                0x0000000000031a00                m68k_op_neg_32_d
                0x0000000000031a50                m68k_op_negx_8_d
                0x0000000000031ab0                m68k_op_negx_16_d
                0x0000000000031b20                m68k_op_negx_32_d
                0x0000000000031b80                m68k_op_nop
                0x0000000000031b90                m68k_op_not_8_d
                0x0000000000031be0                m68k_op_not_16_d
                0x0000000000031c30                m68k_op_not_32_d
                0x0000000000031c70                m68k_op_or_8_er_d
                0x0000000000031cd0                m68k_op_or_16_er_d
                0x0000000000031d30                m68k_op_or_32_er_d
                0x0000000000031d80                m68k_op_ror_8_s
                0x0000000000031e20                m68k_op_ror_16_s
                0x0000000000031ec0                m68k_op_ror_32_s
                0x0000000000031f40                m68k_op_ror_8_r
                0x0000000000032010                m68k_op_ror_16_r
                0x00000000000320f0                m68k_op_ror_32_r
                0x00000000000321c0                m68k_op_rol_8_s
                0x0000000000032260                m68k_op_rol_16_s
                0x0000000000032300                m68k_op_rol_32_s
                0x0000000000032380                m68k_op_rol_8_r
                0x0000000000032460                m68k_op_rol_16_r
                0x0000000000032510                m68k_op_rol_32_r
                0x00000000000325e0                m68k_op_roxr_8_s
                0x0000000000032670                m68k_op_roxr_16_s
                0x0000000000032710                m68k_op_roxr_32_s
                0x00000000000327e0                m68k_op_roxr_8_r
                0x00000000000328c0                m68k_op_roxr_16_r
                0x00000000000329b0                m68k_op_roxr_32_r
                0x0000000000032ac0                m68k_op_roxl_8_s
                0x0000000000032b50                m68k_op_roxl_16_s
                0x0000000000032bf0                m68k_op_roxl_32_s
                0x0000000000032cd0                m68k_op_roxl_8_r
                0x0000000000032db0                m68k_op_roxl_16_r
                0x0000000000032ea0                m68k_op_roxl_32_r
                0x0000000000032fb0                m68k_op_sbcd_8_rr
                0x0000000000033080                m68k_op_st_8_d
                0x00000000000330a0                m68k_op_sf_8_d
                0x00000000000330c0                m68k_op_sub_8_er_d
                0x0000000000033130                m68k_op_sub_16_er_d
                0x00000000000331b0                m68k_op_sub_16_er_a
                0x0000000000033230                m68k_op_sub_32_er_d
                0x00000000000332a0                m68k_op_sub_32_er_a
                0x0000000000033310                m68k_op_suba_16_d
                0x0000000000033340                m68k_op_suba_16_a
                0x0000000000033370                m68k_op_suba_32_d
                0x00000000000333a0                m68k_op_suba_32_a
                0x00000000000333d0                m68k_op_subq_8_d
                0x0000000000033440                m68k_op_subq_16_d
                0x00000000000334b0                m68k_op_subq_32_d
                0x0000000000033510                m68k_op_subq_32_a
                0x0000000000033540                m68k_op_subq_16_a
                0x0000000000033550                m68k_op_subx_8_rr
                0x00000000000335d0                m68k_op_subx_16_rr
                0x0000000000033660                m68k_op_subx_32_rr
                0x00000000000336e0                m68k_op_swap_32
                0x0000000000033720                m68k_op_tas_8_d
                0x0000000000033770                m68k_op_tst_8_d
                0x00000000000337b0                m68k_op_tst_16_d
                0x00000000000337f0                m68k_op_tst_32_d
                0x0000000000033850                m68k_op_blt_32
                0x0000000000033880                m68k_op_bge_32
                0x00000000000338b0                m68k_op_bmi_32
                0x00000000000338e0                m68k_op_bpl_32
                0x0000000000033910                m68k_op_bvs_32
                0x0000000000033940                m68k_op_bvc_32
                0x0000000000033970                m68k_op_beq_32
                0x00000000000339a0                m68k_op_bne_32
                0x00000000000339d0                m68k_op_bcs_32
                0x0000000000033a00                m68k_op_bcc_32
                0x0000000000033a30                m68k_op_bhi_32
                0x0000000000033a60                m68k_op_bgt_8
                0x0000000000033aa0                m68k_op_blt_8
                0x0000000000033ad0                m68k_op_bge_8
                0x0000000000033b00                m68k_op_bmi_8
                0x0000000000033b30                m68k_op_bpl_8
                0x0000000000033b60                m68k_op_bvs_8
                0x0000000000033b90                m68k_op_bvc_8
                0x0000000000033bc0                m68k_op_beq_8
                0x0000000000033bf0                m68k_op_bne_8
                0x0000000000033c20                m68k_op_bcs_8
                0x0000000000033c50                m68k_op_bcc_8
                0x0000000000033c80                m68k_op_bhi_8
                0x0000000000033cb0                m68k_op_bgt_32
                0x0000000000033cf0                m68k_op_ble_32
                0x0000000000033d40                m68k_op_ble_8
                0x0000000000033d80                m68k_op_slt_8_d
                0x0000000000033dc0                m68k_op_sge_8_d
                0x0000000000033e00                m68k_op_smi_8_d
                0x0000000000033e30                m68k_op_spl_8_d
                0x0000000000033e60                m68k_op_svs_8_d
                0x0000000000033e90                m68k_op_svc_8_d
                0x0000000000033ec0                m68k_op_seq_8_d
                0x0000000000033ef0                m68k_op_sne_8_d
                0x0000000000033f20                m68k_op_scs_8_d
                0x0000000000033f50                m68k_op_scc_8_d
                0x0000000000033f80                m68k_op_shi_8_d
                0x0000000000033fc0                m68k_op_sgt_8_d
                0x0000000000034000                m68k_op_sle_8_d
                0x0000000000034160                m68k_op_bsr_32
                0x00000000000341a0                m68k_op_bsr_8
                0x00000000000341b0                m68k_op_jsr_32_ai
                0x00000000000341f0                m68k_op_pea_32_ai
                0x0000000000034220                m68k_op_clr_32_ai
                0x0000000000034270                m68k_op_clr_32_pi
                0x00000000000342d0                m68k_op_clr_32_pd
                0x0000000000034330                m68k_op_move_32_ai_d
                0x0000000000034390                m68k_op_move_32_ai_a
                0x00000000000343f0                m68k_op_move_32_pi_d
                0x0000000000034460                m68k_op_move_32_pi_a
                0x0000000000034600                m68k_op_clr_16_ai
                0x0000000000034650                m68k_op_clr_16_pi
                0x00000000000346b0                m68k_op_clr_16_pd
                0x0000000000034710                m68k_op_move_16_ai_d
                0x0000000000034770                m68k_op_move_16_ai_a
                0x00000000000347d0                m68k_op_move_16_pi_d
                0x0000000000034840                m68k_op_move_16_pi_a
                0x00000000000348b0                m68k_op_move_16_pd_d
                0x0000000000034920                m68k_op_move_16_pd_a
                0x0000000000034990                m68k_op_move_32_pd_d
                0x0000000000034a10                m68k_op_move_32_pd_a
                0x0000000000034a90                m68k_op_move_16_frs_ai
                0x0000000000034b30                m68k_op_move_16_frs_pi
                0x0000000000034be0                m68k_op_move_16_frs_pd
                0x0000000000034d70                m68k_op_1010
                0x0000000000034eb0                m68k_op_chk_16_d
                0x0000000000034f20                m68k_op_divs_16_d
                0x0000000000035000                m68k_op_divu_16_d
                0x0000000000035080                m68k_op_trapv
                0x00000000000350a0                m68k_op_trap
                0x00000000000350b0                m68k_op_add_32_er_i
                0x0000000000035130                m68k_op_adda_32_i
                0x0000000000035170                m68k_op_addi_32_d
                0x00000000000351f0                m68k_op_and_32_er_i
                0x0000000000035250                m68k_op_andi_32_d
                0x00000000000352b0                m68k_op_clr_16_al
                0x0000000000035310                m68k_op_clr_32_al
                0x0000000000035370                m68k_op_cmp_32_i
                0x00000000000353f0                m68k_op_cmpa_32_i
                0x0000000000035470                m68k_op_cmpi_32_d
                0x00000000000354e0                m68k_op_eori_32_d
                0x0000000000035540                m68k_op_jmp_32_al
                0x0000000000035580                m68k_op_jsr_32_al
                0x00000000000355d0                m68k_op_move_16_al_d
                0x0000000000035640                m68k_op_move_16_al_a
                0x00000000000356b0                m68k_op_move_32_d_i
                0x0000000000035710                m68k_op_move_32_ai_i
                0x0000000000035780                m68k_op_move_32_pi_i
                0x0000000000035800                m68k_op_move_32_pd_i
                0x0000000000035890                m68k_op_move_32_al_d
                0x00000000000358f0                m68k_op_move_32_al_a
                0x0000000000035950                m68k_op_move_32_al_i
                0x00000000000359c0                m68k_op_movea_32_i
                0x0000000000035a00                m68k_op_lea_32_al
                0x0000000000035a10                m68k_op_move_16_frs_al
                0x0000000000035ac0                m68k_op_or_32_er_i
                0x0000000000035b30                m68k_op_ori_32_d
                0x0000000000035b90                m68k_op_pea_32_al
                0x0000000000035bd0                m68k_op_sub_32_er_i
                0x0000000000035c50                m68k_op_suba_32_i
                0x0000000000035c90                m68k_op_subi_32_d
                0x0000000000035d10                m68k_op_add_32_er_ai
                0x0000000000035d90                m68k_op_adda_32_ai
                0x0000000000035dd0                m68k_op_and_32_er_ai
                0x0000000000035e30                m68k_op_cmp_32_ai
                0x0000000000035ea0                m68k_op_cmpa_32_ai
                0x0000000000035f10                m68k_op_cmpi_32_ai
                0x0000000000035f90                m68k_op_move_32_d_ai
                0x0000000000035ff0                m68k_op_move_32_ai_ai
                0x0000000000036050                m68k_op_move_32_pi_ai
                0x00000000000360c0                m68k_op_move_32_pd_ai
                0x0000000000036140                m68k_op_move_32_al_ai
                0x00000000000361b0                m68k_op_movea_32_ai
                0x00000000000361e0                m68k_op_or_32_er_ai
                0x0000000000036240                m68k_op_sub_32_er_ai
                0x00000000000362c0                m68k_op_suba_32_ai
                0x0000000000036300                m68k_op_tst_32_ai
                0x0000000000036370                m68k_op_add_32_er_pi
                0x00000000000363e0                m68k_op_cmp_32_pi
                0x0000000000036440                m68k_op_cmpa_32_pi
                0x00000000000364a0                m68k_op_move_32_pd_pi
                0x0000000000036510                m68k_op_sub_32_er_pi
                0x0000000000036580                m68k_op_cmpi_32_pi
                0x0000000000036620                m68k_op_add_32_er_pd
                0x0000000000036690                m68k_op_cmp_32_pd
                0x00000000000366f0                m68k_op_cmpa_32_pd
                0x0000000000036750                m68k_op_move_32_pi_pd
                0x00000000000367b0                m68k_op_move_32_pd_pd
                0x0000000000036820                m68k_op_sub_32_er_pd
                0x0000000000036890                m68k_op_cmpi_32_pd
                0x0000000000036900                m68k_op_move_32_al_pd
                0x0000000000036990                m68k_op_cmpa_32_al
                0x00000000000369f0                m68k_op_move_32_pd_al
                0x0000000000036a60                m68k_op_cmpi_32_al
                0x0000000000036ad0                m68k_op_add_32_re_ai
                0x0000000000036b50                m68k_op_add_32_re_pi
                0x0000000000036be0                m68k_op_add_32_re_pd
                0x0000000000036c70                m68k_op_add_32_re_al
                0x0000000000036d00                m68k_op_addi_32_ai
                0x0000000000036d90                m68k_op_addi_32_pi
                0x0000000000036e30                m68k_op_addi_32_pd
                0x0000000000036ed0                m68k_op_addi_32_al
                0x0000000000036f70                m68k_op_addq_32_ai
                0x0000000000036fe0                m68k_op_addq_32_pi
                0x0000000000037060                m68k_op_addq_32_pd
                0x00000000000370e0                m68k_op_addq_32_al
                0x0000000000037160                m68k_op_addx_32_mm
                0x00000000000371f0                m68k_op_and_32_re_ai
                0x0000000000037250                m68k_op_and_32_re_pi
                0x00000000000372c0                m68k_op_and_32_re_pd
                0x0000000000037330                m68k_op_and_32_re_al
                0x00000000000373a0                m68k_op_andi_32_ai
                0x0000000000037410                m68k_op_andi_32_pi
                0x0000000000037490                m68k_op_andi_32_pd
                0x0000000000037510                m68k_op_andi_32_al
                0x0000000000037740                m68k_op_eor_32_ai
                0x00000000000377a0                m68k_op_eor_32_pi
                0x0000000000037810                m68k_op_eor_32_pd
                0x0000000000037880                m68k_op_eor_32_al
                0x00000000000378f0                m68k_op_eori_32_ai
                0x0000000000037960                m68k_op_eori_32_pi
                0x00000000000379e0                m68k_op_eori_32_pd
                0x0000000000037a60                m68k_op_eori_32_al
                0x0000000000037ae0                m68k_op_neg_32_ai
                0x0000000000037b40                m68k_op_neg_32_pi
                0x0000000000037bb0                m68k_op_neg_32_pd
                0x0000000000037c20                m68k_op_neg_32_al
                0x0000000000037c90                m68k_op_negx_32_ai
                0x0000000000037d00                m68k_op_negx_32_pi
                0x0000000000037d80                m68k_op_negx_32_pd
                0x0000000000037e00                m68k_op_negx_32_al
                0x0000000000037e70                m68k_op_not_32_ai
                0x0000000000037ec0                m68k_op_not_32_pi
                0x0000000000037f20                m68k_op_not_32_pd
                0x0000000000037f80                m68k_op_not_32_al
                0x0000000000037fe0                m68k_op_or_32_re_ai
                0x0000000000038040                m68k_op_or_32_re_pi
                0x00000000000380b0                m68k_op_or_32_re_pd
                0x0000000000038120                m68k_op_or_32_re_al
                0x0000000000038190                m68k_op_ori_32_ai
                0x0000000000038200                m68k_op_ori_32_pi
                0x0000000000038280                m68k_op_ori_32_pd
                0x0000000000038300                m68k_op_ori_32_al
                0x0000000000038380                m68k_op_rts_32
                0x00000000000383a0                m68k_op_unlk_32
                0x00000000000383e0                m68k_op_sub_32_re_ai
                0x0000000000038460                m68k_op_sub_32_re_pi
                0x00000000000384f0                m68k_op_sub_32_re_pd
                0x0000000000038580                m68k_op_sub_32_re_al
                0x0000000000038610                m68k_op_subi_32_ai
                0x00000000000386a0                m68k_op_subi_32_pi
                0x0000000000038740                m68k_op_subi_32_pd
                0x00000000000387e0                m68k_op_subi_32_al
                0x0000000000038870                m68k_op_subq_32_ai
                0x00000000000388e0                m68k_op_subq_32_pi
                0x0000000000038960                m68k_op_subq_32_pd
                0x00000000000389e0                m68k_op_subq_32_al
                0x0000000000038a60                m68k_op_subx_32_mm
                0x0000000000038af0                m68k_op_unlk_32_a7
                0x0000000000038b10                m68k_op_move_32_fru
                0x0000000000038b40                m68k_op_move_32_tou
                0x0000000000038b70                m68k_op_reset
                0x0000000000038ba0                m68k_op_move_16_tos_d
                0x0000000000038cb0                m68k_op_add_8_er_pd
                0x0000000000038d20                m68k_op_and_8_er_pd
                0x0000000000038d70                m68k_op_btst_8_r_pd
                0x0000000000038da0                m68k_op_cmp_8_pd
                0x0000000000038df0                m68k_op_move_8_d_pd
                0x0000000000038e40                m68k_op_or_8_er_pd
                0x0000000000038e90                m68k_op_sub_8_er_pd
                0x0000000000038f00                m68k_op_tst_8_pd
                0x0000000000038f30                m68k_op_add_8_er_pd7
                0x0000000000038fa0                m68k_op_and_8_er_pd7
                0x0000000000039000                m68k_op_btst_8_r_pd7
                0x0000000000039040                m68k_op_cmp_8_pd7
                0x00000000000390a0                m68k_op_move_8_d_pd7
                0x0000000000039100                m68k_op_or_8_er_pd7
                0x0000000000039160                m68k_op_sub_8_er_pd7
                0x00000000000391d0                m68k_op_tst_8_pd7
                0x0000000000039210                m68k_op_add_8_er_ai
                0x0000000000039280                m68k_op_and_8_er_ai
                0x00000000000392e0                m68k_op_btst_8_r_ai
                0x0000000000039320                m68k_op_cmp_8_ai
                0x0000000000039380                m68k_op_move_8_d_ai
                0x00000000000393e0                m68k_op_or_8_er_ai
                0x0000000000039440                m68k_op_sub_8_er_ai
                0x00000000000394b0                m68k_op_tst_8_ai
                0x0000000000039520                m68k_op_add_8_er_pi
                0x0000000000039590                m68k_op_sub_8_er_pi
                0x0000000000039600                m68k_op_add_8_er_pi7
                0x0000000000039670                m68k_op_and_8_er_pi7
                0x00000000000396d0                m68k_op_btst_8_r_pi7
                0x0000000000039710                m68k_op_cmp_8_pi7
                0x0000000000039770                m68k_op_cmpm_8_axy7
                0x00000000000397d0                m68k_op_move_8_d_pi7
                0x0000000000039830                m68k_op_or_8_er_pi7
                0x0000000000039890                m68k_op_sub_8_er_pi7
                0x0000000000039900                m68k_op_tst_8_pi7
                0x0000000000039940                m68k_op_cmpm_8_ay7
                0x00000000000399b0                m68k_op_tas_8_ai
                0x00000000000399f0                m68k_op_tas_8_pi
                0x0000000000039a40                m68k_op_tas_8_pi7
                0x0000000000039a80                m68k_op_tas_8_pd
                0x0000000000039ad0                m68k_op_tas_8_pd7
                0x0000000000039b10                m68k_op_tas_8_al
                0x0000000000039c20                m68k_op_abcd_8_mm_ax7
                0x0000000000039ce0                m68k_op_abcd_8_mm_ay7
                0x0000000000039db0                m68k_op_abcd_8_mm_axy7
                0x0000000000039e70                m68k_op_abcd_8_mm
                0x0000000000039f30                m68k_op_add_8_re_ai
                0x0000000000039fa0                m68k_op_add_8_re_pi
                0x000000000003a020                m68k_op_add_8_re_pi7
                0x000000000003a090                m68k_op_add_8_re_pd
                0x000000000003a110                m68k_op_add_8_re_pd7
                0x000000000003a180                m68k_op_add_8_re_al
                0x000000000003a200                m68k_op_addq_8_ai
                0x000000000003a260                m68k_op_addq_8_pi
                0x000000000003a2d0                m68k_op_addq_8_pi7
                0x000000000003a330                m68k_op_addq_8_pd
                0x000000000003a3a0                m68k_op_addq_8_pd7
                0x000000000003a400                m68k_op_addq_8_al
                0x000000000003a470                m68k_op_addx_8_mm_ax7
                0x000000000003a4e0                m68k_op_addx_8_mm_ay7
                0x000000000003a570                m68k_op_addx_8_mm_axy7
                0x000000000003a5e0                m68k_op_addx_8_mm
                0x000000000003a660                m68k_op_and_8_re_ai
                0x000000000003a6c0                m68k_op_and_8_re_pi
                0x000000000003a730                m68k_op_and_8_re_pi7
                0x000000000003a790                m68k_op_and_8_re_pd
                0x000000000003a800                m68k_op_and_8_re_pd7
                0x000000000003a860                m68k_op_and_8_re_al
                0x000000000003a8d0                m68k_op_bchg_8_r_ai
                0x000000000003a920                m68k_op_bchg_8_r_pi
                0x000000000003a980                m68k_op_bchg_8_r_pi7
                0x000000000003a9d0                m68k_op_bchg_8_r_pd
                0x000000000003aa30                m68k_op_bchg_8_r_pd7
                0x000000000003aa80                m68k_op_bchg_8_r_al
                0x000000000003aae0                m68k_op_bclr_8_r_ai
                0x000000000003ab40                m68k_op_bclr_8_r_pi
                0x000000000003abb0                m68k_op_bclr_8_r_pi7
                0x000000000003ac10                m68k_op_bclr_8_r_pd
                0x000000000003ac70                m68k_op_bclr_8_r_pd7
                0x000000000003acd0                m68k_op_bclr_8_r_al
                0x000000000003ad30                m68k_op_bset_8_r_ai
                0x000000000003ad80                m68k_op_bset_8_r_pi
                0x000000000003ade0                m68k_op_bset_8_r_pi7
                0x000000000003ae30                m68k_op_bset_8_r_pd
                0x000000000003ae90                m68k_op_bset_8_r_pd7
                0x000000000003aee0                m68k_op_bset_8_r_al
                0x000000000003af40                m68k_op_clr_8_ai
                0x000000000003af90                m68k_op_clr_8_pi
                0x000000000003aff0                m68k_op_clr_8_pi7
                0x000000000003b040                m68k_op_clr_8_pd
                0x000000000003b0a0                m68k_op_clr_8_pd7
                0x000000000003b0f0                m68k_op_clr_8_al
                0x000000000003b150                m68k_op_eor_8_ai
                0x000000000003b1b0                m68k_op_eor_8_pi
                0x000000000003b220                m68k_op_eor_8_pi7
                0x000000000003b280                m68k_op_eor_8_pd
                0x000000000003b2f0                m68k_op_eor_8_pd7
                0x000000000003b350                m68k_op_eor_8_al
                0x000000000003b3c0                m68k_op_move_8_ai_d
                0x000000000003b410                m68k_op_move_8_ai_ai
                0x000000000003b470                m68k_op_move_8_ai_pi7
                0x000000000003b4d0                m68k_op_move_8_ai_pd
                0x000000000003b520                m68k_op_move_8_ai_pd7
                0x000000000003b580                m68k_op_move_8_pi7_d
                0x000000000003b5d0                m68k_op_move_8_pi_d
                0x000000000003b630                m68k_op_move_8_pi7_ai
                0x000000000003b690                m68k_op_move_8_pi7_pi7
                0x000000000003b6f0                m68k_op_move_8_pi7_pd
                0x000000000003b740                m68k_op_move_8_pi7_pd7
                0x000000000003b7a0                m68k_op_move_8_pi_ai
                0x000000000003b810                m68k_op_move_8_pi_pi
                0x000000000003b870                m68k_op_move_8_pi_pi7
                0x000000000003b8e0                m68k_op_move_8_pi_pd
                0x000000000003b940                m68k_op_move_8_pi_pd7
                0x000000000003b9b0                m68k_op_move_8_pd7_d
                0x000000000003ba00                m68k_op_move_8_pd_d
                0x000000000003ba60                m68k_op_move_8_pd7_ai
                0x000000000003bac0                m68k_op_move_8_pd7_pi7
                0x000000000003bb20                m68k_op_move_8_pd7_pd
                0x000000000003bb70                m68k_op_move_8_pd7_pd7
                0x000000000003bbd0                m68k_op_move_8_pd_ai
                0x000000000003bc40                m68k_op_move_8_pd_pi
                0x000000000003bca0                m68k_op_move_8_pd_pi7
                0x000000000003bd10                m68k_op_move_8_pd_pd
                0x000000000003bd70                m68k_op_move_8_pd_pd7
                0x000000000003bde0                m68k_op_move_8_al_d
                0x000000000003be40                m68k_op_move_8_al_ai
                0x000000000003beb0                m68k_op_move_8_al_pi7
                0x000000000003bf10                m68k_op_move_8_al_pd
                0x000000000003bf70                m68k_op_move_8_al_pd7
                0x000000000003bfd0                m68k_op_nbcd_8_ai
                0x000000000003c090                m68k_op_nbcd_8_pi
                0x000000000003c160                m68k_op_nbcd_8_pi7
                0x000000000003c220                m68k_op_nbcd_8_pd
                0x000000000003c2f0                m68k_op_nbcd_8_pd7
                0x000000000003c3b0                m68k_op_nbcd_8_al
                0x000000000003c480                m68k_op_neg_8_ai
                0x000000000003c4d0                m68k_op_neg_8_pi
                0x000000000003c530                m68k_op_neg_8_pi7
                0x000000000003c580                m68k_op_neg_8_pd
                0x000000000003c5e0                m68k_op_neg_8_pd7
                0x000000000003c630                m68k_op_neg_8_al
                0x000000000003c690                m68k_op_negx_8_ai
                0x000000000003c6f0                m68k_op_negx_8_pi
                0x000000000003c760                m68k_op_negx_8_pi7
                0x000000000003c7c0                m68k_op_negx_8_pd
                0x000000000003c830                m68k_op_negx_8_pd7
                0x000000000003c890                m68k_op_negx_8_al
                0x000000000003c900                m68k_op_not_8_ai
                0x000000000003c950                m68k_op_not_8_pi
                0x000000000003c9b0                m68k_op_not_8_pi7
                0x000000000003ca00                m68k_op_not_8_pd
                0x000000000003ca60                m68k_op_not_8_pd7
                0x000000000003cab0                m68k_op_not_8_al
                0x000000000003cb10                m68k_op_or_8_re_ai
                0x000000000003cb70                m68k_op_or_8_re_pi
                0x000000000003cbe0                m68k_op_or_8_re_pi7
                0x000000000003cc40                m68k_op_or_8_re_pd
                0x000000000003ccb0                m68k_op_or_8_re_pd7
                0x000000000003cd10                m68k_op_or_8_re_al
                0x000000000003cd80                m68k_op_sbcd_8_mm_ax7
                0x000000000003ce40                m68k_op_sbcd_8_mm_ay7
                0x000000000003cf20                m68k_op_sbcd_8_mm_axy7
                0x000000000003cff0                m68k_op_sbcd_8_mm
                0x000000000003d0c0                m68k_op_st_8_ai
                0x000000000003d0e0                m68k_op_st_8_pi
                0x000000000003d110                m68k_op_st_8_pi7
                0x000000000003d130                m68k_op_st_8_pd
                0x000000000003d160                m68k_op_st_8_pd7
                0x000000000003d180                m68k_op_st_8_al
                0x000000000003d1b0                m68k_op_sf_8_ai
                0x000000000003d1d0                m68k_op_sf_8_pi
                0x000000000003d200                m68k_op_sf_8_pi7
                0x000000000003d220                m68k_op_sf_8_pd
                0x000000000003d250                m68k_op_sf_8_pd7
                0x000000000003d270                m68k_op_sf_8_al
                0x000000000003d2a0                m68k_op_shi_8_ai
                0x000000000003d2e0                m68k_op_shi_8_pi
                0x000000000003d330                m68k_op_shi_8_pi7
                0x000000000003d360                m68k_op_shi_8_pd
                0x000000000003d3a0                m68k_op_shi_8_pd7
                0x000000000003d3d0                m68k_op_shi_8_al
                0x000000000003d420                m68k_op_sls_8_ai
                0x000000000003d460                m68k_op_sls_8_pi
                0x000000000003d4b0                m68k_op_sls_8_pi7
                0x000000000003d4f0                m68k_op_sls_8_pd
                0x000000000003d530                m68k_op_sls_8_pd7
                0x000000000003d570                m68k_op_sls_8_al
                0x000000000003d5c0                m68k_op_scc_8_ai
                0x000000000003d5f0                m68k_op_scc_8_pi
                0x000000000003d630                m68k_op_scc_8_pi7
                0x000000000003d660                m68k_op_scc_8_pd
                0x000000000003d6a0                m68k_op_scc_8_pd7
                0x000000000003d6d0                m68k_op_scc_8_al
                0x000000000003d710                m68k_op_scs_8_ai
                0x000000000003d740                m68k_op_scs_8_pi
                0x000000000003d780                m68k_op_scs_8_pi7
                0x000000000003d7b0                m68k_op_scs_8_pd
                0x000000000003d7f0                m68k_op_scs_8_pd7
                0x000000000003d820                m68k_op_scs_8_al
                0x000000000003d860                m68k_op_sne_8_ai
                0x000000000003d890                m68k_op_sne_8_pi
                0x000000000003d8d0                m68k_op_sne_8_pi7
                0x000000000003d900                m68k_op_sne_8_pd
                0x000000000003d930                m68k_op_sne_8_pd7
                0x000000000003d960                m68k_op_sne_8_al
                0x000000000003d9a0                m68k_op_seq_8_ai
                0x000000000003d9d0                m68k_op_seq_8_pi
                0x000000000003da10                m68k_op_seq_8_pi7
                0x000000000003da40                m68k_op_seq_8_pd
                0x000000000003da80                m68k_op_seq_8_pd7
                0x000000000003dab0                m68k_op_seq_8_al
                0x000000000003daf0                m68k_op_svc_8_ai
                0x000000000003db20                m68k_op_svc_8_pi
                0x000000000003db60                m68k_op_svc_8_pi7
                0x000000000003db90                m68k_op_svc_8_pd
                0x000000000003dbd0                m68k_op_svc_8_pd7
                0x000000000003dc00                m68k_op_svc_8_al
                0x000000000003dc40                m68k_op_svs_8_ai
                0x000000000003dc70                m68k_op_svs_8_pi
                0x000000000003dcb0                m68k_op_svs_8_pi7
                0x000000000003dce0                m68k_op_svs_8_pd
                0x000000000003dd20                m68k_op_svs_8_pd7
                0x000000000003dd50                m68k_op_svs_8_al
                0x000000000003dd90                m68k_op_spl_8_ai
                0x000000000003ddc0                m68k_op_spl_8_pi
                0x000000000003de00                m68k_op_spl_8_pi7
                0x000000000003de30                m68k_op_spl_8_pd
                0x000000000003de70                m68k_op_spl_8_pd7
                0x000000000003dea0                m68k_op_spl_8_al
                0x000000000003dee0                m68k_op_smi_8_ai
                0x000000000003df10                m68k_op_smi_8_pi
                0x000000000003df50                m68k_op_smi_8_pi7
                0x000000000003df80                m68k_op_smi_8_pd
                0x000000000003dfc0                m68k_op_smi_8_pd7
                0x000000000003dff0                m68k_op_smi_8_al
                0x000000000003e030                m68k_op_sge_8_ai
                0x000000000003e070                m68k_op_sge_8_pi
                0x000000000003e0c0                m68k_op_sge_8_pi7
                0x000000000003e0f0                m68k_op_sge_8_pd
                0x000000000003e130                m68k_op_sge_8_pd7
                0x000000000003e160                m68k_op_sge_8_al
                0x000000000003e1b0                m68k_op_slt_8_ai
                0x000000000003e1e0                m68k_op_slt_8_pi
                0x000000000003e220                m68k_op_slt_8_pi7
                0x000000000003e250                m68k_op_slt_8_pd
                0x000000000003e290                m68k_op_slt_8_pd7
                0x000000000003e2c0                m68k_op_slt_8_al
                0x000000000003e310                m68k_op_sgt_8_ai
                0x000000000003e350                m68k_op_sgt_8_pi
                0x000000000003e3a0                m68k_op_sgt_8_pi7
                0x000000000003e3e0                m68k_op_sgt_8_pd
                0x000000000003e430                m68k_op_sgt_8_pd7
                0x000000000003e470                m68k_op_sgt_8_al
                0x000000000003e4c0                m68k_op_sle_8_ai
                0x000000000003e500                m68k_op_sle_8_pi
                0x000000000003e550                m68k_op_sle_8_pi7
                0x000000000003e590                m68k_op_sle_8_pd
                0x000000000003e5e0                m68k_op_sle_8_pd7
                0x000000000003e620                m68k_op_sle_8_al
                0x000000000003e680                m68k_op_sub_8_re_ai
                0x000000000003e6f0                m68k_op_sub_8_re_pi
                0x000000000003e770                m68k_op_sub_8_re_pi7
                0x000000000003e7e0                m68k_op_sub_8_re_pd
                0x000000000003e860                m68k_op_sub_8_re_pd7
                0x000000000003e8d0                m68k_op_sub_8_re_al
                0x000000000003e950                m68k_op_subq_8_ai
                0x000000000003e9b0                m68k_op_subq_8_pi
                0x000000000003ea20                m68k_op_subq_8_pi7
                0x000000000003ea80                m68k_op_subq_8_pd
                0x000000000003eaf0                m68k_op_subq_8_pd7
                0x000000000003eb50                m68k_op_subq_8_al
                0x000000000003ebc0                m68k_op_subx_8_mm_ax7
                0x000000000003ec30                m68k_op_subx_8_mm_ay7
                0x000000000003ecc0                m68k_op_subx_8_mm_axy7
                0x000000000003ed40                m68k_op_subx_8_mm
                0x000000000003eec0                m68k_op_add_8_er_di
                0x000000000003ef30                m68k_op_and_8_er_di
                0x000000000003ef80                m68k_op_btst_8_r_di
                0x000000000003efb0                m68k_op_cmp_8_di
                0x000000000003f000                m68k_op_move_8_d_di
                0x000000000003f050                m68k_op_move_8_ai_di
                0x000000000003f0a0                m68k_op_move_8_pi7_di
                0x000000000003f0f0                m68k_op_move_8_pi_di
                0x000000000003f150                m68k_op_move_8_pd7_di
                0x000000000003f1a0                m68k_op_move_8_pd_di
                0x000000000003f200                m68k_op_move_8_al_di
                0x000000000003f260                m68k_op_or_8_er_di
                0x000000000003f2b0                m68k_op_sub_8_er_di
                0x000000000003f320                m68k_op_tst_8_di
                0x000000000003f3c0                m68k_op_add_8_er_ix
                0x000000000003f430                m68k_op_and_8_er_ix
                0x000000000003f480                m68k_op_cmp_8_ix
                0x000000000003f4d0                m68k_op_move_8_ai_ix
                0x000000000003f520                m68k_op_move_8_pi_ix
                0x000000000003f580                m68k_op_move_8_pd_ix
                0x000000000003f5e0                m68k_op_move_8_al_ix
                0x000000000003f640                m68k_op_sub_8_er_ix
                0x000000000003f6b0                m68k_op_jmp_32_pcix
                0x000000000003f6e0                m68k_op_jsr_32_pcix
                0x000000000003f720                m68k_op_lea_32_pcix
                0x000000000003f750                m68k_op_pea_32_pcix
                0x000000000003f7a0                m68k_op_add_32_er_ix
                0x000000000003f810                m68k_op_cmp_32_ix
                0x000000000003f870                m68k_op_cmpa_32_ix
                0x000000000003f8d0                m68k_op_cmpi_32_ix
                0x000000000003f940                m68k_op_move_32_ai_ix
                0x000000000003f990                m68k_op_move_32_pi_ix
                0x000000000003f9f0                m68k_op_move_32_pd_ix
                0x000000000003fa60                m68k_op_move_32_al_ix
                0x000000000003fac0                m68k_op_sub_32_er_ix
                0x000000000003fb30                m68k_op_add_8_re_ix
                0x000000000003fba0                m68k_op_add_32_re_ix
                0x000000000003fc20                m68k_op_addi_32_ix
                0x000000000003fcb0                m68k_op_addq_8_ix
                0x000000000003fd10                m68k_op_addq_32_ix
                0x000000000003fd80                m68k_op_and_8_re_ix
                0x000000000003fdf0                m68k_op_and_32_re_ix
                0x000000000003fe60                m68k_op_andi_32_ix
                0x000000000003fed0                m68k_op_bchg_8_r_ix
                0x000000000003ff30                m68k_op_bclr_8_r_ix
                0x000000000003ff90                m68k_op_bset_8_r_ix
                0x000000000003fff0                m68k_op_clr_8_ix
                0x0000000000040040                m68k_op_clr_16_ix
                0x0000000000040090                m68k_op_clr_32_ix
                0x00000000000400e0                m68k_op_eor_8_ix
                0x0000000000040150                m68k_op_eor_32_ix
                0x00000000000401c0                m68k_op_eori_32_ix
                0x0000000000040230                m68k_op_jmp_32_ix
                0x0000000000040270                m68k_op_jsr_32_ix
                0x00000000000402b0                m68k_op_lea_32_ix
                0x00000000000402e0                m68k_op_move_8_ix_d
                0x0000000000040340                m68k_op_move_8_ix_ai
                0x00000000000403a0                m68k_op_move_8_ix_pi
                0x00000000000403f0                m68k_op_move_8_ix_pi7
                0x0000000000040450                m68k_op_move_8_ix_pd
                0x00000000000404a0                m68k_op_move_8_ix_pd7
                0x0000000000040500                m68k_op_move_8_ix_di
                0x0000000000040550                m68k_op_move_8_ix_ix
                0x00000000000405a0                m68k_op_move_16_ix_d
                0x0000000000040600                m68k_op_move_16_ix_a
                0x0000000000040660                m68k_op_move_32_ix_d
                0x00000000000406c0                m68k_op_move_32_ix_a
                0x0000000000040720                m68k_op_move_32_ix_ai
                0x0000000000040790                m68k_op_move_32_ix_pd
                0x00000000000407f0                m68k_op_move_32_ix_ix
                0x0000000000040850                m68k_op_move_32_ix_i
                0x00000000000408c0                m68k_op_move_16_frs_ix
                0x0000000000040960                m68k_op_nbcd_8_ix
                0x0000000000040a30                m68k_op_neg_8_ix
                0x0000000000040a90                m68k_op_neg_32_ix
                0x0000000000040af0                m68k_op_negx_8_ix
                0x0000000000040b50                m68k_op_negx_32_ix
                0x0000000000040bc0                m68k_op_not_8_ix
                0x0000000000040c20                m68k_op_not_32_ix
                0x0000000000040c80                m68k_op_or_8_re_ix
                0x0000000000040cf0                m68k_op_or_32_re_ix
                0x0000000000040d60                m68k_op_ori_32_ix
                0x0000000000040dd0                m68k_op_pea_32_ix
                0x0000000000040e00                m68k_op_st_8_ix
                0x0000000000040e30                m68k_op_sf_8_ix
                0x0000000000040e60                m68k_op_shi_8_ix
                0x0000000000040ea0                m68k_op_sls_8_ix
                0x0000000000040ef0                m68k_op_scc_8_ix
                0x0000000000040f30                m68k_op_scs_8_ix
                0x0000000000040f70                m68k_op_sne_8_ix
                0x0000000000040fb0                m68k_op_seq_8_ix
                0x0000000000040ff0                m68k_op_svc_8_ix
                0x0000000000041030                m68k_op_svs_8_ix
                0x0000000000041070                m68k_op_spl_8_ix
                0x00000000000410b0                m68k_op_smi_8_ix
                0x00000000000410f0                m68k_op_sge_8_ix
                0x0000000000041130                m68k_op_slt_8_ix
                0x0000000000041170                m68k_op_sgt_8_ix
                0x00000000000411c0                m68k_op_sle_8_ix
                0x0000000000041210                m68k_op_sub_8_re_ix
                0x0000000000041280                m68k_op_sub_32_re_ix
                0x0000000000041300                m68k_op_subi_32_ix
                0x0000000000041390                m68k_op_subq_8_ix
                0x00000000000413f0                m68k_op_subq_32_ix
                0x0000000000041460                m68k_op_tas_8_ix
                0x00000000000414d0                m68k_op_add_32_er_pcdi
                0x0000000000041540                m68k_op_cmp_32_pcdi
                0x00000000000415a0                m68k_op_cmpa_32_pcdi
                0x0000000000041600                m68k_op_move_32_pd_pcdi
                0x0000000000041670                m68k_op_sub_32_er_pcdi
                0x00000000000416e0                m68k_op_jmp_32_pcdi
                0x0000000000041720                m68k_op_jsr_32_pcdi
                0x0000000000041770                m68k_op_lea_32_pcdi
                0x00000000000417b0                m68k_op_pea_32_pcdi
                0x00000000000417f0                m68k_op_add_8_er_i
                0x0000000000041870                m68k_op_add_16_er_i
                0x0000000000041930                m68k_op_add_32_er_di
                0x00000000000419a0                m68k_op_adda_32_di
                0x00000000000419d0                m68k_op_and_32_er_di
                0x0000000000041a20                m68k_op_cmp_32_di
                0x0000000000041a80                m68k_op_cmpa_32_di
                0x0000000000041ae0                m68k_op_cmpi_32_di
                0x0000000000041b50                m68k_op_move_32_d_di
                0x0000000000041ba0                m68k_op_move_32_ai_di
                0x0000000000041bf0                m68k_op_move_32_pi_di
                0x0000000000041c50                m68k_op_move_32_pd_di
                0x0000000000041cc0                m68k_op_move_32_ix_di
                0x0000000000041d20                m68k_op_move_32_al_di
                0x0000000000041d80                m68k_op_movea_32_di
                0x0000000000041db0                m68k_op_or_32_er_di
                0x0000000000041e00                m68k_op_sub_32_er_di
                0x0000000000041e70                m68k_op_suba_32_di
                0x0000000000041ea0                m68k_op_tst_32_di
                0x0000000000041f00                m68k_op_cmpa_32_aw
                0x0000000000041f60                m68k_op_cmpi_32_aw
                0x0000000000041fd0                m68k_op_move_32_pd_aw
                0x0000000000042040                m68k_op_add_8_re_di
                0x00000000000420d0                m68k_op_add_8_re_aw
                0x0000000000042150                m68k_op_add_32_re_di
                0x00000000000421f0                m68k_op_add_32_re_aw
                0x0000000000042280                m68k_op_adda_16_i
                0x00000000000422c0                m68k_op_addi_8_d
                0x0000000000042340                m68k_op_addi_8_ai
                0x00000000000423c0                m68k_op_addi_8_pi
                0x0000000000042450                m68k_op_addi_8_pi7
                0x00000000000424d0                m68k_op_addi_8_pd
                0x0000000000042550                m68k_op_addi_8_pd7
                0x00000000000425d0                m68k_op_addi_8_di
                0x0000000000042670                m68k_op_addi_8_ix
                0x00000000000426f0                m68k_op_addi_8_aw
                0x0000000000042780                m68k_op_addi_8_al
                0x0000000000042800                m68k_op_addi_16_d
                0x0000000000042880                m68k_op_addi_32_di
                0x0000000000042930                m68k_op_addi_32_aw
                0x00000000000429d0                m68k_op_addq_8_di
                0x0000000000042a50                m68k_op_addq_8_aw
                0x0000000000042ac0                m68k_op_addq_32_di
                0x0000000000042b50                m68k_op_addq_32_aw
                0x0000000000042bd0                m68k_op_and_8_er_i
                0x0000000000042c40                m68k_op_and_16_er_i
                0x0000000000042cb0                m68k_op_and_8_re_di
                0x0000000000042d30                m68k_op_and_8_re_aw
                0x0000000000042da0                m68k_op_and_32_re_di
                0x0000000000042e20                m68k_op_and_32_re_aw
                0x0000000000042e90                m68k_op_andi_8_d
                0x0000000000042f00                m68k_op_andi_8_ai
                0x0000000000042f70                m68k_op_andi_8_pi
                0x0000000000042ff0                m68k_op_andi_8_pi7
                0x0000000000043060                m68k_op_andi_8_pd
                0x00000000000430e0                m68k_op_andi_8_pd7
                0x0000000000043150                m68k_op_andi_8_di
                0x00000000000431e0                m68k_op_andi_8_ix
                0x0000000000043250                m68k_op_andi_8_aw
                0x00000000000432d0                m68k_op_andi_8_al
                0x0000000000043350                m68k_op_andi_16_d
                0x00000000000433c0                m68k_op_andi_32_di
                0x0000000000043450                m68k_op_andi_32_aw
                0x00000000000434d0                m68k_op_andi_16_toc
                0x0000000000043590                m68k_op_bchg_8_r_di
                0x0000000000043600                m68k_op_bchg_8_r_aw
                0x0000000000043660                m68k_op_bchg_32_s_d
                0x00000000000436b0                m68k_op_bchg_8_s_ai
                0x0000000000043710                m68k_op_bchg_8_s_pi
                0x0000000000043780                m68k_op_bchg_8_s_pi7
                0x00000000000437e0                m68k_op_bchg_8_s_pd
                0x0000000000043850                m68k_op_bchg_8_s_pd7
                0x00000000000438b0                m68k_op_bchg_8_s_di
                0x0000000000043930                m68k_op_bchg_8_s_ix
                0x0000000000043990                m68k_op_bchg_8_s_aw
                0x0000000000043a00                m68k_op_bchg_8_s_al
                0x0000000000043a70                m68k_op_bclr_8_r_di
                0x0000000000043af0                m68k_op_bclr_8_r_aw
                0x0000000000043b60                m68k_op_bclr_32_s_d
                0x0000000000043bc0                m68k_op_bclr_8_s_ai
                0x0000000000043c20                m68k_op_bclr_8_s_pi
                0x0000000000043c90                m68k_op_bclr_8_s_pi7
                0x0000000000043cf0                m68k_op_bclr_8_s_pd
                0x0000000000043d60                m68k_op_bclr_8_s_pd7
                0x0000000000043dc0                m68k_op_bclr_8_s_di
                0x0000000000043e40                m68k_op_bclr_8_s_ix
                0x0000000000043ea0                m68k_op_bclr_8_s_aw
                0x0000000000043f10                m68k_op_bclr_8_s_al
                0x0000000000043f80                m68k_op_bra_16
                0x0000000000043fd0                m68k_op_bset_8_r_di
                0x0000000000044040                m68k_op_bset_8_r_aw
                0x00000000000440a0                m68k_op_bset_32_s_d
                0x00000000000440f0                m68k_op_bset_8_s_ai
                0x0000000000044150                m68k_op_bset_8_s_pi
                0x00000000000441c0                m68k_op_bset_8_s_pi7
                0x0000000000044220                m68k_op_bset_8_s_pd
                0x0000000000044290                m68k_op_bset_8_s_pd7
                0x00000000000442f0                m68k_op_bset_8_s_di
                0x0000000000044370                m68k_op_bset_8_s_ix
                0x00000000000443d0                m68k_op_bset_8_s_aw
                0x0000000000044440                m68k_op_bset_8_s_al
                0x00000000000444b0                m68k_op_bsr_16
                0x0000000000044500                m68k_op_btst_8_r_i
                0x0000000000044550                m68k_op_btst_32_s_d
                0x00000000000445a0                m68k_op_btst_8_s_ai
                0x00000000000445f0                m68k_op_btst_8_s_pi7
                0x0000000000044640                m68k_op_btst_8_s_pd
                0x0000000000044680                m68k_op_btst_8_s_pd7
                0x00000000000446d0                m68k_op_btst_8_s_di
                0x0000000000044710                m68k_op_btst_8_s_ix
                0x0000000000044750                m68k_op_chk_16_i
                0x00000000000447e0                m68k_op_clr_8_di
                0x0000000000044850                m68k_op_clr_8_aw
                0x00000000000448b0                m68k_op_clr_16_di
                0x0000000000044920                m68k_op_clr_16_aw
                0x0000000000044980                m68k_op_clr_32_di
                0x00000000000449f0                m68k_op_clr_32_aw
                0x0000000000044a50                m68k_op_cmp_8_i
                0x0000000000044ac0                m68k_op_cmp_16_i
                0x0000000000044b30                m68k_op_cmpa_16_i
                0x0000000000044bb0                m68k_op_cmpi_8_d
                0x0000000000044c20                m68k_op_cmpi_8_ai
                0x0000000000044c90                m68k_op_cmpi_8_pi
                0x0000000000044cf0                m68k_op_cmpi_8_pi7
                0x0000000000044d60                m68k_op_cmpi_8_pd
                0x0000000000044dc0                m68k_op_cmpi_8_pd7
                0x0000000000044e30                m68k_op_cmpi_8_di
                0x0000000000044e90                m68k_op_cmpi_8_ix
                0x0000000000044ef0                m68k_op_cmpi_16_d
                0x0000000000044f60                m68k_op_divs_16_i
                0x0000000000045050                m68k_op_divu_16_i
                0x00000000000450f0                m68k_op_eor_8_di
                0x0000000000045170                m68k_op_eor_8_aw
                0x00000000000451e0                m68k_op_eor_32_di
                0x0000000000045260                m68k_op_eor_32_aw
                0x00000000000452d0                m68k_op_eori_8_d
                0x0000000000045340                m68k_op_eori_8_ai
                0x00000000000453b0                m68k_op_eori_8_pi
                0x0000000000045430                m68k_op_eori_8_pi7
                0x00000000000454a0                m68k_op_eori_8_pd
                0x0000000000045520                m68k_op_eori_8_pd7
                0x0000000000045590                m68k_op_eori_8_di
                0x0000000000045620                m68k_op_eori_8_ix
                0x0000000000045690                m68k_op_eori_8_aw
                0x0000000000045710                m68k_op_eori_8_al
                0x0000000000045790                m68k_op_eori_16_d
                0x0000000000045800                m68k_op_eori_32_di
                0x0000000000045890                m68k_op_eori_32_aw
                0x0000000000045910                m68k_op_eori_16_toc
                0x00000000000459d0                m68k_op_jmp_32_di
                0x0000000000045a20                m68k_op_jmp_32_aw
                0x0000000000045a60                m68k_op_jsr_32_di
                0x0000000000045ac0                m68k_op_jsr_32_aw
                0x0000000000045b10                m68k_op_lea_32_di
                0x0000000000045b60                m68k_op_link_16_a7
                0x0000000000045bb0                m68k_op_link_16
                0x0000000000045c20                m68k_op_move_8_d_i
                0x0000000000045c80                m68k_op_move_8_ai_i
                0x0000000000045cf0                m68k_op_move_8_pi7_i
                0x0000000000045d50                m68k_op_move_8_pi_i
                0x0000000000045dc0                m68k_op_move_8_pd7_i
                0x0000000000045e20                m68k_op_move_8_pd_i
                0x0000000000045e90                m68k_op_move_8_di_d
                0x0000000000045f00                m68k_op_move_8_di_ai
                0x0000000000045f80                m68k_op_move_8_di_pi
                0x0000000000045ff0                m68k_op_move_8_di_pi7
                0x0000000000046070                m68k_op_move_8_di_pd
                0x00000000000460e0                m68k_op_move_8_di_pd7
                0x0000000000046160                m68k_op_move_8_di_di
                0x00000000000461d0                m68k_op_move_8_di_ix
                0x0000000000046240                m68k_op_move_8_di_aw
                0x00000000000462d0                m68k_op_move_8_di_al
                0x0000000000046350                m68k_op_move_8_di_pcdi
                0x00000000000463e0                m68k_op_move_8_di_pcix
                0x0000000000046450                m68k_op_move_8_di_i
                0x00000000000464d0                m68k_op_move_8_ix_i
                0x0000000000046540                m68k_op_move_8_aw_d
                0x00000000000465a0                m68k_op_move_8_aw_ai
                0x0000000000046610                m68k_op_move_8_aw_pi7
                0x0000000000046680                m68k_op_move_8_aw_pd
                0x00000000000466e0                m68k_op_move_8_aw_pd7
                0x0000000000046740                m68k_op_move_8_aw_di
                0x00000000000467a0                m68k_op_move_8_aw_ix
                0x0000000000046800                m68k_op_move_8_aw_i
                0x0000000000046870                m68k_op_move_8_al_i
                0x00000000000468e0                m68k_op_move_16_d_i
                0x0000000000046950                m68k_op_move_16_ai_i
                0x00000000000469c0                m68k_op_move_16_pi_i
                0x0000000000046a40                m68k_op_move_16_pd_i
                0x0000000000046ac0                m68k_op_move_16_di_d
                0x0000000000046b40                m68k_op_move_16_di_a
                0x0000000000046bc0                m68k_op_move_16_di_i
                0x0000000000046c40                m68k_op_move_16_ix_i
                0x0000000000046cb0                m68k_op_move_16_aw_d
                0x0000000000046d20                m68k_op_move_16_aw_a
                0x0000000000046d90                m68k_op_move_16_aw_i
                0x0000000000046e00                m68k_op_move_16_al_i
                0x0000000000046e70                m68k_op_move_32_di_d
                0x0000000000046ee0                m68k_op_move_32_di_a
                0x0000000000046f50                m68k_op_move_32_di_ai
                0x0000000000046fd0                m68k_op_move_32_di_pi
                0x0000000000047040                m68k_op_move_32_di_pd
                0x00000000000470b0                m68k_op_move_32_di_di
                0x0000000000047120                m68k_op_move_32_di_ix
                0x0000000000047190                m68k_op_move_32_di_aw
                0x0000000000047200                m68k_op_move_32_di_al
                0x0000000000047270                m68k_op_move_32_di_pcdi
                0x00000000000472e0                m68k_op_move_32_di_pcix
                0x0000000000047360                m68k_op_move_32_di_i
                0x00000000000473e0                m68k_op_move_32_aw_d
                0x0000000000047440                m68k_op_move_32_aw_a
                0x00000000000474a0                m68k_op_move_32_aw_ai
                0x0000000000047510                m68k_op_move_32_aw_pd
                0x0000000000047570                m68k_op_move_32_aw_di
                0x00000000000475d0                m68k_op_move_32_aw_ix
                0x0000000000047630                m68k_op_move_32_aw_i
                0x00000000000476a0                m68k_op_movea_16_i
                0x00000000000476e0                m68k_op_lea_32_aw
                0x00000000000476f0                m68k_op_move_16_toc_i
                0x0000000000047760                m68k_op_move_16_frs_di
                0x0000000000047820                m68k_op_move_16_frs_aw
                0x00000000000478d0                m68k_op_movem_16_re_pd
                0x0000000000047990                m68k_op_movem_16_re_ai
                0x0000000000047a20                m68k_op_movem_16_re_di
                0x0000000000047ad0                m68k_op_movem_16_re_ix
                0x0000000000047b70                m68k_op_movem_16_re_aw
                0x0000000000047c10                m68k_op_movem_16_re_al
                0x0000000000047cb0                m68k_op_movem_32_re_pd
                0x0000000000047d80                m68k_op_movem_32_re_ai
                0x0000000000047e10                m68k_op_movem_32_re_di
                0x0000000000047ec0                m68k_op_movem_32_re_ix
                0x0000000000047f50                m68k_op_movem_32_re_aw
                0x0000000000047ff0                m68k_op_movem_32_re_al
                0x0000000000048090                m68k_op_movem_32_er_pi
                0x0000000000048130                m68k_op_movem_32_er_pcdi
                0x00000000000481d0                m68k_op_movem_32_er_pcix
                0x0000000000048260                m68k_op_movem_32_er_ai
                0x00000000000482f0                m68k_op_movem_32_er_di
                0x00000000000483a0                m68k_op_movem_32_er_ix
                0x0000000000048430                m68k_op_movem_32_er_aw
                0x00000000000484d0                m68k_op_movem_32_er_al
                0x0000000000048570                m68k_op_movep_16_re
                0x00000000000485e0                m68k_op_movep_32_re
                0x0000000000048670                m68k_op_movep_16_er
                0x00000000000486f0                m68k_op_movep_32_er
                0x0000000000048780                m68k_op_move16_32
                0x0000000000048860                m68k_op_muls_16_i
                0x00000000000488d0                m68k_op_mulu_16_i
                0x0000000000048940                m68k_op_nbcd_8_di
                0x0000000000048a20                m68k_op_nbcd_8_aw
                0x0000000000048af0                m68k_op_neg_8_di
                0x0000000000048b60                m68k_op_neg_8_aw
                0x0000000000048bc0                m68k_op_neg_32_di
                0x0000000000048c40                m68k_op_neg_32_aw
                0x0000000000048cb0                m68k_op_negx_8_di
                0x0000000000048d30                m68k_op_negx_8_aw
                0x0000000000048da0                m68k_op_negx_32_di
                0x0000000000048e20                m68k_op_negx_32_aw
                0x0000000000048ea0                m68k_op_not_8_di
                0x0000000000048f10                m68k_op_not_8_aw
                0x0000000000048f70                m68k_op_not_32_di
                0x0000000000048fe0                m68k_op_not_32_aw
                0x0000000000049040                m68k_op_or_8_er_i
                0x00000000000490b0                m68k_op_or_16_er_i
                0x0000000000049120                m68k_op_or_8_re_di
                0x00000000000491a0                m68k_op_or_8_re_aw
                0x0000000000049210                m68k_op_or_32_re_di
                0x0000000000049290                m68k_op_or_32_re_aw
                0x0000000000049300                m68k_op_ori_8_d
                0x0000000000049370                m68k_op_ori_8_ai
                0x00000000000493e0                m68k_op_ori_8_pi
                0x0000000000049460                m68k_op_ori_8_pi7
                0x00000000000494d0                m68k_op_ori_8_pd
                0x0000000000049550                m68k_op_ori_8_pd7
                0x00000000000495c0                m68k_op_ori_8_di
                0x0000000000049650                m68k_op_ori_8_ix
                0x00000000000496c0                m68k_op_ori_8_aw
                0x0000000000049740                m68k_op_ori_8_al
                0x00000000000497c0                m68k_op_ori_16_d
                0x0000000000049830                m68k_op_ori_32_di
                0x00000000000498c0                m68k_op_ori_32_aw
                0x0000000000049940                m68k_op_ori_16_toc
                0x0000000000049a00                m68k_op_pea_32_di
                0x0000000000049a50                m68k_op_pea_32_aw
                0x0000000000049a90                m68k_op_st_8_di
                0x0000000000049ad0                m68k_op_st_8_aw
                0x0000000000049b00                m68k_op_sf_8_di
                0x0000000000049b40                m68k_op_sf_8_aw
                0x0000000000049b70                m68k_op_shi_8_di
                0x0000000000049bd0                m68k_op_shi_8_aw
                0x0000000000049c20                m68k_op_sls_8_di
                0x0000000000049c80                m68k_op_sls_8_aw
                0x0000000000049cd0                m68k_op_scc_8_di
                0x0000000000049d20                m68k_op_scc_8_aw
                0x0000000000049d60                m68k_op_scs_8_di
                0x0000000000049db0                m68k_op_scs_8_aw
                0x0000000000049df0                m68k_op_sne_8_di
                0x0000000000049e40                m68k_op_sne_8_aw
                0x0000000000049e80                m68k_op_seq_8_di
                0x0000000000049ed0                m68k_op_seq_8_aw
                0x0000000000049f10                m68k_op_svc_8_di
                0x0000000000049f60                m68k_op_svc_8_aw
                0x0000000000049fa0                m68k_op_svs_8_di
                0x0000000000049ff0                m68k_op_svs_8_aw
                0x000000000004a030                m68k_op_spl_8_di
                0x000000000004a080                m68k_op_spl_8_aw
                0x000000000004a0c0                m68k_op_smi_8_di
                0x000000000004a110                m68k_op_smi_8_aw
                0x000000000004a150                m68k_op_sge_8_di
                0x000000000004a1b0                m68k_op_sge_8_aw
                0x000000000004a200                m68k_op_slt_8_di
                0x000000000004a260                m68k_op_slt_8_aw
                0x000000000004a2b0                m68k_op_sgt_8_di
                0x000000000004a310                m68k_op_sgt_8_aw
                0x000000000004a360                m68k_op_sle_8_di
                0x000000000004a3d0                m68k_op_sle_8_aw
                0x000000000004a430                m68k_op_sub_8_er_i
                0x000000000004a4c0                m68k_op_sub_16_er_i
                0x000000000004a540                m68k_op_sub_8_re_di
                0x000000000004a5d0                m68k_op_sub_8_re_aw
                0x000000000004a650                m68k_op_sub_32_re_di
                0x000000000004a6f0                m68k_op_sub_32_re_aw
                0x000000000004a780                m68k_op_suba_16_i
                0x000000000004a7c0                m68k_op_subi_8_d
                0x000000000004a840                m68k_op_subi_8_ai
                0x000000000004a8b0                m68k_op_subi_8_pi
                0x000000000004a930                m68k_op_subi_8_pi7
                0x000000000004a9a0                m68k_op_subi_8_pd
                0x000000000004aa20                m68k_op_subi_8_pd7
                0x000000000004aa90                m68k_op_subi_8_di
                0x000000000004ab30                m68k_op_subi_8_ix
                0x000000000004abb0                m68k_op_subi_8_aw
                0x000000000004ac30                m68k_op_subi_8_al
                0x000000000004acb0                m68k_op_subi_16_d
                0x000000000004ad40                m68k_op_subi_32_di
                0x000000000004adf0                m68k_op_subi_32_aw
                0x000000000004ae90                m68k_op_subq_8_di
                0x000000000004af10                m68k_op_subq_8_aw
                0x000000000004af80                m68k_op_subq_32_di
                0x000000000004b010                m68k_op_subq_32_aw
                0x000000000004b090                m68k_op_tas_8_di
                0x000000000004b0f0                m68k_op_tas_8_aw
                0x000000000004b140                m68k_op_add_16_er_ai
                0x000000000004b1c0                m68k_op_adda_16_ai
                0x000000000004b200                m68k_op_and_16_er_ai
                0x000000000004b270                m68k_op_chk_16_ai
                0x000000000004b2f0                m68k_op_cmp_16_ai
                0x000000000004b360                m68k_op_cmpa_16_ai
                0x000000000004b3d0                m68k_op_cmpi_16_ai
                0x000000000004b440                m68k_op_divs_16_ai
                0x000000000004b520                m68k_op_divu_16_ai
                0x000000000004b5b0                m68k_op_move_16_d_ai
                0x000000000004b620                m68k_op_move_16_ai_ai
                0x000000000004b680                m68k_op_move_16_pi_ai
                0x000000000004b6f0                m68k_op_move_16_pd_ai
                0x000000000004b760                m68k_op_move_16_di_ai
                0x000000000004b7e0                m68k_op_move_16_ix_ai
                0x000000000004b850                m68k_op_move_16_aw_ai
                0x000000000004b8c0                m68k_op_move_16_al_ai
                0x000000000004b930                m68k_op_movea_16_ai
                0x000000000004b960                m68k_op_move_16_toc_ai
                0x000000000004b9d0                m68k_op_muls_16_ai
                0x000000000004ba30                m68k_op_mulu_16_ai
                0x000000000004ba90                m68k_op_or_16_er_ai
                0x000000000004baf0                m68k_op_sub_16_er_ai
                0x000000000004bb70                m68k_op_suba_16_ai
                0x000000000004bbb0                m68k_op_tst_16_ai
                0x000000000004bc20                m68k_op_add_16_er_pi
                0x000000000004bc90                m68k_op_adda_16_pi
                0x000000000004bcc0                m68k_op_and_16_er_pi
                0x000000000004bd20                m68k_op_chk_16_pi
                0x000000000004bd90                m68k_op_cmp_16_pi
                0x000000000004bdf0                m68k_op_cmpa_16_pi
                0x000000000004be50                m68k_op_divs_16_pi
                0x000000000004bf30                m68k_op_divu_16_pi
                0x000000000004bfc0                m68k_op_move_16_d_pi
                0x000000000004c020                m68k_op_move_16_ai_pi
                0x000000000004c070                m68k_op_move_16_pi_pi
                0x000000000004c0d0                m68k_op_move_16_pd_pi
                0x000000000004c130                m68k_op_move_16_ix_pi
                0x000000000004c190                m68k_op_move_16_al_pi
                0x000000000004c1f0                m68k_op_movea_16_pi
                0x000000000004c220                m68k_op_move_16_toc_pi
                0x000000000004c280                m68k_op_muls_16_pi
                0x000000000004c2d0                m68k_op_mulu_16_pi
                0x000000000004c320                m68k_op_or_16_er_pi
                0x000000000004c380                m68k_op_sub_16_er_pi
                0x000000000004c3f0                m68k_op_suba_16_pi
                0x000000000004c420                m68k_op_tst_16_pi
                0x000000000004c450                m68k_op_cmpi_16_pi
                0x000000000004c4b0                m68k_op_move_16_di_pi
                0x000000000004c520                m68k_op_move_16_aw_pi
                0x000000000004c5b0                m68k_op_add_16_er_pd
                0x000000000004c620                m68k_op_adda_16_pd
                0x000000000004c650                m68k_op_and_16_er_pd
                0x000000000004c6b0                m68k_op_chk_16_pd
                0x000000000004c720                m68k_op_cmp_16_pd
                0x000000000004c780                m68k_op_cmpa_16_pd
                0x000000000004c7e0                m68k_op_divs_16_pd
                0x000000000004c8c0                m68k_op_divu_16_pd
                0x000000000004c950                m68k_op_move_16_d_pd
                0x000000000004c9b0                m68k_op_move_16_ai_pd
                0x000000000004ca00                m68k_op_move_16_pi_pd
                0x000000000004ca60                m68k_op_move_16_pd_pd
                0x000000000004cac0                m68k_op_move_16_ix_pd
                0x000000000004cb20                m68k_op_move_16_al_pd
                0x000000000004cb80                m68k_op_movea_16_pd
                0x000000000004cbb0                m68k_op_move_16_toc_pd
                0x000000000004cc10                m68k_op_muls_16_pd
                0x000000000004cc60                m68k_op_mulu_16_pd
                0x000000000004ccb0                m68k_op_or_16_er_pd
                0x000000000004cd10                m68k_op_sub_16_er_pd
                0x000000000004cd80                m68k_op_suba_16_pd
                0x000000000004cdb0                m68k_op_tst_16_pd
                0x000000000004cde0                m68k_op_cmpi_16_pd
                0x000000000004ce40                m68k_op_move_16_di_pd
                0x000000000004ceb0                m68k_op_move_16_aw_pd
                0x000000000004cf50                m68k_op_add_16_er_di
                0x000000000004cfc0                m68k_op_adda_16_di
                0x000000000004cff0                m68k_op_and_16_er_di
                0x000000000004d050                m68k_op_chk_16_di
                0x000000000004d0c0                m68k_op_cmp_16_di
                0x000000000004d120                m68k_op_cmpa_16_di
                0x000000000004d180                m68k_op_divs_16_di
                0x000000000004d260                m68k_op_divu_16_di
                0x000000000004d2f0                m68k_op_move_16_d_di
                0x000000000004d350                m68k_op_move_16_ai_di
                0x000000000004d3a0                m68k_op_move_16_pi_di
                0x000000000004d400                m68k_op_move_16_pd_di
                0x000000000004d460                m68k_op_move_16_ix_di
                0x000000000004d4c0                m68k_op_move_16_al_di
                0x000000000004d520                m68k_op_movea_16_di
                0x000000000004d550                m68k_op_move_16_toc_di
                0x000000000004d5b0                m68k_op_muls_16_di
                0x000000000004d600                m68k_op_mulu_16_di
                0x000000000004d650                m68k_op_or_16_er_di
                0x000000000004d6b0                m68k_op_sub_16_er_di
                0x000000000004d720                m68k_op_suba_16_di
                0x000000000004d750                m68k_op_tst_16_di
                0x000000000004d780                m68k_op_cmpi_16_di
                0x000000000004d7e0                m68k_op_move_16_di_di
                0x000000000004d850                m68k_op_move_16_aw_di
                0x000000000004d8d0                m68k_op_add_16_er_ix
                0x000000000004d940                m68k_op_adda_16_ix
                0x000000000004d970                m68k_op_and_16_er_ix
                0x000000000004d9d0                m68k_op_chk_16_ix
                0x000000000004da40                m68k_op_cmp_16_ix
                0x000000000004daa0                m68k_op_cmpa_16_ix
                0x000000000004db00                m68k_op_divs_16_ix
                0x000000000004dbe0                m68k_op_divu_16_ix
                0x000000000004dc70                m68k_op_move_16_d_ix
                0x000000000004dcd0                m68k_op_move_16_ai_ix
                0x000000000004dd20                m68k_op_move_16_pi_ix
                0x000000000004dd80                m68k_op_move_16_pd_ix
                0x000000000004dde0                m68k_op_move_16_ix_ix
                0x000000000004de40                m68k_op_move_16_al_ix
                0x000000000004dea0                m68k_op_movea_16_ix
                0x000000000004ded0                m68k_op_move_16_toc_ix
                0x000000000004df30                m68k_op_muls_16_ix
                0x000000000004df80                m68k_op_mulu_16_ix
                0x000000000004dfd0                m68k_op_or_16_er_ix
                0x000000000004e030                m68k_op_sub_16_er_ix
                0x000000000004e0a0                m68k_op_suba_16_ix
                0x000000000004e0d0                m68k_op_tst_16_ix
                0x000000000004e100                m68k_op_cmpi_16_ix
                0x000000000004e160                m68k_op_move_16_di_ix
                0x000000000004e1d0                m68k_op_move_16_aw_ix
                0x000000000004e260                m68k_op_add_16_er_aw
                0x000000000004e2d0                m68k_op_adda_16_aw
                0x000000000004e300                m68k_op_and_16_er_aw
                0x000000000004e360                m68k_op_chk_16_aw
                0x000000000004e3d0                m68k_op_cmp_16_aw
                0x000000000004e430                m68k_op_cmpa_16_aw
                0x000000000004e490                m68k_op_divs_16_aw
                0x000000000004e570                m68k_op_divu_16_aw
                0x000000000004e600                m68k_op_move_16_d_aw
                0x000000000004e660                m68k_op_move_16_ai_aw
                0x000000000004e6b0                m68k_op_move_16_pi_aw
                0x000000000004e710                m68k_op_move_16_pd_aw
                0x000000000004e770                m68k_op_move_16_ix_aw
                0x000000000004e7d0                m68k_op_move_16_al_aw
                0x000000000004e830                m68k_op_movea_16_aw
                0x000000000004e860                m68k_op_move_16_toc_aw
                0x000000000004e8c0                m68k_op_muls_16_aw
                0x000000000004e910                m68k_op_mulu_16_aw
                0x000000000004e960                m68k_op_or_16_er_aw
                0x000000000004e9c0                m68k_op_sub_16_er_aw
                0x000000000004ea30                m68k_op_suba_16_aw
                0x000000000004ea60                m68k_op_tst_16_aw
                0x000000000004ea90                m68k_op_cmpi_16_aw
                0x000000000004eaf0                m68k_op_move_16_di_aw
                0x000000000004eb60                m68k_op_move_16_aw_aw
                0x000000000004ebf0                m68k_op_add_16_er_al
                0x000000000004ec60                m68k_op_adda_16_al
                0x000000000004ec90                m68k_op_and_16_er_al
                0x000000000004ecf0                m68k_op_chk_16_al
                0x000000000004ed60                m68k_op_cmp_16_al
                0x000000000004edc0                m68k_op_cmpa_16_al
                0x000000000004ee20                m68k_op_divs_16_al
                0x000000000004ef00                m68k_op_divu_16_al
                0x000000000004ef90                m68k_op_move_16_d_al
                0x000000000004eff0                m68k_op_move_16_ai_al
                0x000000000004f040                m68k_op_move_16_pi_al
                0x000000000004f0a0                m68k_op_move_16_pd_al
                0x000000000004f100                m68k_op_move_16_ix_al
                0x000000000004f160                m68k_op_move_16_al_al
                0x000000000004f1c0                m68k_op_movea_16_al
                0x000000000004f1f0                m68k_op_move_16_toc_al
                0x000000000004f250                m68k_op_muls_16_al
                0x000000000004f2a0                m68k_op_mulu_16_al
                0x000000000004f2f0                m68k_op_or_16_er_al
                0x000000000004f350                m68k_op_sub_16_er_al
                0x000000000004f3c0                m68k_op_suba_16_al
                0x000000000004f3f0                m68k_op_tst_16_al
                0x000000000004f420                m68k_op_cmpi_16_al
                0x000000000004f480                m68k_op_move_16_di_al
                0x000000000004f4f0                m68k_op_move_16_aw_al
                0x000000000004f580                m68k_op_add_16_er_pcdi
                0x000000000004f5f0                m68k_op_adda_16_pcdi
                0x000000000004f620                m68k_op_and_16_er_pcdi
                0x000000000004f680                m68k_op_chk_16_pcdi
                0x000000000004f6f0                m68k_op_cmp_16_pcdi
                0x000000000004f750                m68k_op_cmpa_16_pcdi
                0x000000000004f7b0                m68k_op_divs_16_pcdi
                0x000000000004f890                m68k_op_divu_16_pcdi
                0x000000000004f920                m68k_op_move_16_d_pcdi
                0x000000000004f980                m68k_op_move_16_ai_pcdi
                0x000000000004f9d0                m68k_op_move_16_pi_pcdi
                0x000000000004fa30                m68k_op_move_16_pd_pcdi
                0x000000000004fa90                m68k_op_move_16_ix_pcdi
                0x000000000004faf0                m68k_op_move_16_al_pcdi
                0x000000000004fb50                m68k_op_movea_16_pcdi
                0x000000000004fb80                m68k_op_move_16_toc_pcdi
                0x000000000004fbe0                m68k_op_muls_16_pcdi
                0x000000000004fc30                m68k_op_mulu_16_pcdi
                0x000000000004fc80                m68k_op_or_16_er_pcdi
                0x000000000004fce0                m68k_op_sub_16_er_pcdi
                0x000000000004fd50                m68k_op_suba_16_pcdi
                0x000000000004fd80                m68k_op_move_16_di_pcdi
                0x000000000004fdf0                m68k_op_move_16_aw_pcdi
                0x000000000004fe50                m68k_op_divs_16_pcix
                0x000000000004ff30                m68k_op_add_16_re_ai
                0x000000000004ffa0                m68k_op_add_16_re_pi
                0x0000000000050020                m68k_op_add_16_re_pd
                0x00000000000500a0                m68k_op_add_16_re_di
                0x0000000000050130                m68k_op_add_16_re_ix
                0x00000000000501b0                m68k_op_add_16_re_aw
                0x0000000000050230                m68k_op_add_16_re_al
                0x00000000000502b0                m68k_op_addi_16_ai
                0x0000000000050330                m68k_op_addi_16_pi
                0x00000000000503c0                m68k_op_addi_16_pd
                0x0000000000050450                m68k_op_addi_16_di
                0x00000000000504f0                m68k_op_addi_16_ix
                0x0000000000050570                m68k_op_addi_16_aw
                0x0000000000050600                m68k_op_addi_16_al
                0x0000000000050680                m68k_op_addq_16_ai
                0x00000000000506f0                m68k_op_addq_16_pi
                0x0000000000050760                m68k_op_addq_16_pd
                0x00000000000507d0                m68k_op_addq_16_di
                0x0000000000050860                m68k_op_addq_16_ix
                0x00000000000508d0                m68k_op_addq_16_aw
                0x0000000000050950                m68k_op_addq_16_al
                0x00000000000509d0                m68k_op_addx_16_mm
                0x0000000000050a50                m68k_op_and_16_re_ai
                0x0000000000050ab0                m68k_op_and_16_re_pi
                0x0000000000050b20                m68k_op_and_16_re_pd
                0x0000000000050b90                m68k_op_and_16_re_di
                0x0000000000050c10                m68k_op_and_16_re_ix
                0x0000000000050c80                m68k_op_and_16_re_aw
                0x0000000000050d00                m68k_op_and_16_re_al
                0x0000000000050d70                m68k_op_andi_16_ai
                0x0000000000050de0                m68k_op_andi_16_pi
                0x0000000000050e60                m68k_op_andi_16_pd
                0x0000000000050ee0                m68k_op_andi_16_di
                0x0000000000050f70                m68k_op_andi_16_ix
                0x0000000000050fe0                m68k_op_andi_16_aw
                0x0000000000051060                m68k_op_andi_16_al
                0x00000000000510e0                m68k_op_asr_16_ai
                0x0000000000051140                m68k_op_asr_16_pi
                0x00000000000511b0                m68k_op_asr_16_pd
                0x0000000000051220                m68k_op_asr_16_di
                0x00000000000512a0                m68k_op_asr_16_ix
                0x0000000000051310                m68k_op_asr_16_aw
                0x0000000000051380                m68k_op_asr_16_al
                0x00000000000513f0                m68k_op_asl_16_ai
                0x0000000000051460                m68k_op_asl_16_pi
                0x00000000000514e0                m68k_op_asl_16_pd
                0x0000000000051570                m68k_op_asl_16_di
                0x0000000000051600                m68k_op_asl_16_ix
                0x0000000000051680                m68k_op_asl_16_aw
                0x0000000000051700                m68k_op_asl_16_al
                0x0000000000051780                m68k_op_cmpm_16
                0x00000000000517f0                m68k_op_eor_16_ai
                0x0000000000051850                m68k_op_eor_16_pi
                0x00000000000518d0                m68k_op_eor_16_pd
                0x0000000000051950                m68k_op_eor_16_di
                0x00000000000519e0                m68k_op_eor_16_ix
                0x0000000000051a50                m68k_op_eor_16_aw
                0x0000000000051ad0                m68k_op_eor_16_al
                0x0000000000051b50                m68k_op_eori_16_ai
                0x0000000000051bc0                m68k_op_eori_16_pi
                0x0000000000051c40                m68k_op_eori_16_pd
                0x0000000000051cc0                m68k_op_eori_16_di
                0x0000000000051d50                m68k_op_eori_16_ix
                0x0000000000051dc0                m68k_op_eori_16_aw
                0x0000000000051e40                m68k_op_eori_16_al
                0x0000000000051ec0                m68k_op_lsr_16_ai
                0x0000000000051f20                m68k_op_lsr_16_pi
                0x0000000000051f90                m68k_op_lsr_16_pd
                0x0000000000052000                m68k_op_lsr_16_di
                0x0000000000052080                m68k_op_lsr_16_ix
                0x00000000000520e0                m68k_op_lsr_16_aw
                0x0000000000052150                m68k_op_lsr_16_al
                0x00000000000521c0                m68k_op_lsl_16_ai
                0x0000000000052220                m68k_op_lsl_16_pi
                0x0000000000052290                m68k_op_lsl_16_pd
                0x0000000000052300                m68k_op_lsl_16_di
                0x0000000000052380                m68k_op_lsl_16_ix
                0x00000000000523e0                m68k_op_lsl_16_aw
                0x0000000000052450                m68k_op_lsl_16_al
                0x00000000000524c0                m68k_op_movem_16_er_pi
                0x0000000000052560                m68k_op_movem_16_er_pcdi
                0x0000000000052600                m68k_op_movem_16_er_pcix
                0x0000000000052690                m68k_op_movem_16_er_ai
                0x0000000000052720                m68k_op_movem_16_er_di
                0x00000000000527d0                m68k_op_movem_16_er_ix
                0x0000000000052860                m68k_op_movem_16_er_aw
                0x0000000000052900                m68k_op_movem_16_er_al
                0x00000000000529a0                m68k_op_neg_16_ai
                0x0000000000052a00                m68k_op_neg_16_pi
                0x0000000000052a70                m68k_op_neg_16_pd
                0x0000000000052ae0                m68k_op_neg_16_di
                0x0000000000052b60                m68k_op_neg_16_ix
                0x0000000000052bc0                m68k_op_neg_16_aw
                0x0000000000052c30                m68k_op_neg_16_al
                0x0000000000052ca0                m68k_op_negx_16_ai
                0x0000000000052d10                m68k_op_negx_16_pi
                0x0000000000052d90                m68k_op_negx_16_pd
                0x0000000000052e10                m68k_op_negx_16_di
                0x0000000000052ea0                m68k_op_negx_16_ix
                0x0000000000052f10                m68k_op_negx_16_aw
                0x0000000000052f90                m68k_op_negx_16_al
                0x0000000000053010                m68k_op_not_16_ai
                0x0000000000053070                m68k_op_not_16_pi
                0x00000000000530e0                m68k_op_not_16_pd
                0x0000000000053150                m68k_op_not_16_di
                0x00000000000531d0                m68k_op_not_16_ix
                0x0000000000053230                m68k_op_not_16_aw
                0x00000000000532a0                m68k_op_not_16_al
                0x0000000000053300                m68k_op_or_16_re_ai
                0x0000000000053360                m68k_op_or_16_re_pi
                0x00000000000533e0                m68k_op_or_16_re_pd
                0x0000000000053460                m68k_op_or_16_re_di
                0x00000000000534f0                m68k_op_or_16_re_ix
                0x0000000000053560                m68k_op_or_16_re_aw
                0x00000000000535e0                m68k_op_or_16_re_al
                0x0000000000053660                m68k_op_ori_16_ai
                0x00000000000536d0                m68k_op_ori_16_pi
                0x0000000000053750                m68k_op_ori_16_pd
                0x00000000000537d0                m68k_op_ori_16_di
                0x0000000000053860                m68k_op_ori_16_ix
                0x00000000000538e0                m68k_op_ori_16_aw
                0x0000000000053960                m68k_op_ori_16_al
                0x00000000000539e0                m68k_op_ror_16_ai
                0x0000000000053a40                m68k_op_ror_16_pi
                0x0000000000053ab0                m68k_op_ror_16_pd
                0x0000000000053b20                m68k_op_ror_16_di
                0x0000000000053ba0                m68k_op_ror_16_ix
                0x0000000000053c00                m68k_op_ror_16_aw
                0x0000000000053c70                m68k_op_ror_16_al
                0x0000000000053ce0                m68k_op_rol_16_ai
                0x0000000000053d40                m68k_op_rol_16_pi
                0x0000000000053db0                m68k_op_rol_16_pd
                0x0000000000053e20                m68k_op_rol_16_di
                0x0000000000053ea0                m68k_op_rol_16_ix
                0x0000000000053f00                m68k_op_rol_16_aw
                0x0000000000053f70                m68k_op_rol_16_al
                0x0000000000053fe0                m68k_op_roxr_16_ai
                0x0000000000054050                m68k_op_roxr_16_pi
                0x00000000000540d0                m68k_op_roxr_16_pd
                0x0000000000054150                m68k_op_roxr_16_di
                0x00000000000541e0                m68k_op_roxr_16_ix
                0x0000000000054260                m68k_op_roxr_16_aw
                0x00000000000542e0                m68k_op_roxr_16_al
                0x0000000000054360                m68k_op_roxl_16_ai
                0x00000000000543d0                m68k_op_roxl_16_pi
                0x0000000000054450                m68k_op_roxl_16_pd
                0x00000000000544d0                m68k_op_roxl_16_di
                0x0000000000054560                m68k_op_roxl_16_ix
                0x00000000000545e0                m68k_op_roxl_16_aw
                0x0000000000054660                m68k_op_roxl_16_al
                0x00000000000546e0                m68k_op_rtr_32
                0x0000000000054760                m68k_op_sub_16_re_ai
                0x00000000000547d0                m68k_op_sub_16_re_pi
                0x0000000000054850                m68k_op_sub_16_re_pd
                0x00000000000548d0                m68k_op_sub_16_re_di
                0x0000000000054960                m68k_op_sub_16_re_ix
                0x00000000000549e0                m68k_op_sub_16_re_aw
                0x0000000000054a60                m68k_op_sub_16_re_al
                0x0000000000054ae0                m68k_op_subi_16_ai
                0x0000000000054b60                m68k_op_subi_16_pi
                0x0000000000054bf0                m68k_op_subi_16_pd
                0x0000000000054c80                m68k_op_subi_16_di
                0x0000000000054d20                m68k_op_subi_16_ix
                0x0000000000054da0                m68k_op_subi_16_aw
                0x0000000000054e30                m68k_op_subi_16_al
                0x0000000000054ec0                m68k_op_subq_16_ai
                0x0000000000054f30                m68k_op_subq_16_pi
                0x0000000000054fb0                m68k_op_subq_16_pd
                0x0000000000055030                m68k_op_subq_16_di
                0x00000000000550c0                m68k_op_subq_16_ix
                0x0000000000055130                m68k_op_subq_16_aw
                0x00000000000551b0                m68k_op_subq_16_al
                0x0000000000055230                m68k_op_subx_16_mm
                0x00000000000552b0                m68k_op_andi_16_tos
                0x00000000000553b0                m68k_op_blt_16
                0x00000000000553f0                m68k_op_bge_16
                0x0000000000055430                m68k_op_bmi_16
                0x0000000000055470                m68k_op_bpl_16
                0x00000000000554b0                m68k_op_bvs_16
                0x00000000000554f0                m68k_op_bvc_16
                0x0000000000055530                m68k_op_beq_16
                0x0000000000055570                m68k_op_bne_16
                0x00000000000555b0                m68k_op_bcs_16
                0x00000000000555f0                m68k_op_bcc_16
                0x0000000000055630                m68k_op_bhi_16
                0x0000000000055670                m68k_op_bgt_16
                0x00000000000556f0                m68k_op_bls_16
                0x0000000000055740                m68k_op_ble_16
                0x00000000000557d0                m68k_op_dbge_16
                0x0000000000055870                m68k_op_dbmi_16
                0x0000000000055910                m68k_op_dbpl_16
                0x00000000000559b0                m68k_op_dbvs_16
                0x0000000000055a50                m68k_op_dbvc_16
                0x0000000000055af0                m68k_op_dbeq_16
                0x0000000000055b90                m68k_op_dbne_16
                0x0000000000055c30                m68k_op_dbcs_16
                0x0000000000055cd0                m68k_op_dbcc_16
                0x0000000000055d70                m68k_op_dblt_16
                0x0000000000055e60                m68k_op_dbgt_16
                0x0000000000055ef0                m68k_op_dbls_16
                0x0000000000055f70                m68k_op_dbhi_16
                0x0000000000055ff0                m68k_op_dbf_16
                0x0000000000056050                m68k_op_dble_16
                0x00000000000560e0                m68k_op_eori_16_tos
                0x00000000000561a0                m68k_op_move_16_tos_i
                0x00000000000561e0                m68k_op_ori_16_tos
                0x00000000000562a0                m68k_op_stop
                0x00000000000562f0                m68k_op_move_16_tos_ai
                0x0000000000056320                m68k_op_move_16_tos_pi
                0x0000000000056340                m68k_op_move_16_tos_pd
                0x0000000000056360                m68k_op_move_16_tos_di
                0x0000000000056380                m68k_op_move_16_tos_ix
                0x00000000000563a0                m68k_op_move_16_tos_aw
                0x00000000000563c0                m68k_op_move_16_tos_al
                0x00000000000563e0                m68k_op_move_16_tos_pcdi
                0x0000000000056400                m68k_op_rte_32
                0x0000000000056470                m68k_op_cpdbcc_32
                0x00000000000564e0                m68k_op_1111
                0x0000000000056550                m68k_op_unpk_16_mm_axy7
                0x00000000000565c0                m68k_op_040fpu1_32
                0x0000000000056630                m68k_op_bfffo_32_pcdi
                0x00000000000566a0                m68k_op_bftst_32_al
                0x0000000000056710                m68k_op_040fpu0_32
                0x0000000000056780                m68k_op_extb_32
                0x00000000000567f0                m68k_op_illegal
                0x0000000000056860                m68k_op_bfset_32_al
                0x00000000000568d0                m68k_op_cpscc_32
                0x0000000000056940                m68k_op_divl_32_i
                0x00000000000569b0                m68k_op_divl_32_pi
                0x0000000000056a20                m68k_op_bfextu_32_aw
                0x0000000000056a90                m68k_op_callm_32_ai
                0x0000000000056b00                m68k_op_divl_32_pcdi
                0x0000000000056b70                m68k_op_link_32_a7
                0x0000000000056be0                m68k_op_bkpt
                0x0000000000056c50                m68k_op_cmpi_8_pcdi
                0x0000000000056cc0                m68k_op_cmpi_8_pcix
                0x0000000000056d30                m68k_op_bfexts_32_pcdi
                0x0000000000056da0                m68k_op_bfchg_32_ix
                0x0000000000056e10                m68k_op_bfextu_32_di
                0x0000000000056e80                m68k_op_divl_32_d
                0x0000000000056ef0                m68k_op_cptrapcc_32
                0x0000000000056f60                m68k_op_chk_32_d
                0x0000000000056fd0                m68k_op_divl_32_pd
                0x0000000000057040                m68k_op_callm_32_al
                0x00000000000570b0                m68k_op_bfclr_32_d
                0x0000000000057120                m68k_op_cmpi_16_pcdi
                0x0000000000057190                m68k_op_chk2cmp2_8_ai
                0x0000000000057200                m68k_op_bftst_32_d
                0x0000000000057270                m68k_op_cas_16_pd
                0x00000000000572e0                m68k_op_divl_32_al
                0x0000000000057350                m68k_op_chk2cmp2_8_ix
                0x00000000000573c0                m68k_op_bfchg_32_d
                0x0000000000057430                m68k_op_cmpi_32_pcix
                0x00000000000574a0                m68k_op_cpbcc_32
                0x0000000000057510                m68k_op_chk2cmp2_16_di
                0x0000000000057580                m68k_op_chk2cmp2_32_ix
                0x00000000000575f0                m68k_op_divl_32_ix
                0x0000000000057660                m68k_op_cas_32_pi
                0x00000000000576d0                m68k_op_cas_32_di
                0x0000000000057740                m68k_op_chk_32_ai
                0x00000000000577b0                m68k_op_bfset_32_di
                0x0000000000057820                m68k_op_link_32
                0x0000000000057890                m68k_op_divl_32_pcix
                0x0000000000057900                m68k_op_chk_32_al
                0x0000000000057970                m68k_op_bfchg_32_di
                0x00000000000579e0                m68k_op_cmpi_16_pcix
                0x0000000000057a50                m68k_op_bfclr_32_di
                0x0000000000057ac0                m68k_op_divl_32_ai
                0x0000000000057b30                m68k_op_cpgen_32
                0x0000000000057ba0                m68k_op_cas_8_di
                0x0000000000057c10                m68k_op_bfclr_32_ai
                0x0000000000057c80                m68k_op_bfffo_32_aw
                0x0000000000057cf0                m68k_op_bftst_32_di
                0x0000000000057d60                m68k_op_bftst_32_ai
                0x0000000000057dd0                m68k_op_divl_32_aw
                0x0000000000057e40                m68k_op_cas_16_al
                0x0000000000057eb0                m68k_op_chk2cmp2_16_aw
                0x0000000000057f20                m68k_op_bfchg_32_ai
                0x0000000000057f90                m68k_op_bfexts_32_al
                0x0000000000058000                m68k_op_chk2cmp2_16_pcdi
                0x0000000000058070                m68k_op_bftst_32_aw
                0x00000000000580e0                m68k_op_divl_32_di
                0x0000000000058150                m68k_op_cas_8_pd
                0x00000000000581c0                m68k_op_bfextu_32_pcdi
                0x0000000000058230                m68k_op_callm_32_di
                0x00000000000582a0                m68k_op_bfset_32_d
                0x0000000000058310                m68k_op_bfset_32_aw
                0x0000000000058380                m68k_op_cas2_16
                0x00000000000583f0                m68k_op_bfextu_32_d
                0x0000000000058460                m68k_op_bfextu_32_pcix
                0x00000000000584d0                m68k_op_callm_32_pcdi
                0x0000000000058540                m68k_op_callm_32_pcix
                0x00000000000585b0                m68k_op_bftst_32_pcdi
                0x0000000000058620                m68k_op_chk2cmp2_8_al
                0x0000000000058690                m68k_op_trapeq_32
                0x0000000000058700                m68k_op_cas_16_ix
                0x0000000000058770                m68k_op_bfins_32_al
                0x00000000000587e0                m68k_op_chk_32_pcix
                0x0000000000058850                m68k_op_bfexts_32_d
                0x00000000000588c0                m68k_op_bfclr_32_al
                0x0000000000058930                m68k_op_chk2cmp2_8_pcix
                0x00000000000589a0                m68k_op_cas_8_aw
                0x0000000000058a10                m68k_op_bfins_32_d
                0x0000000000058a80                m68k_op_chk2cmp2_32_pcdi
                0x0000000000058af0                m68k_op_bfffo_32_di
                0x0000000000058b60                m68k_op_bfffo_32_pcix
                0x0000000000058bd0                m68k_op_cas_16_aw
                0x0000000000058c40                m68k_op_cas_32_aw
                0x0000000000058cb0                m68k_op_bfclr_32_aw
                0x0000000000058d20                m68k_op_bfextu_32_ai
                0x0000000000058d90                m68k_op_chk2cmp2_16_ix
                0x0000000000058e00                m68k_op_bfins_32_di
                0x0000000000058e70                m68k_op_bfffo_32_ix
                0x0000000000058ee0                m68k_op_cas_8_ix
                0x0000000000058f50                m68k_op_bfexts_32_di
                0x0000000000058fc0                m68k_op_bfclr_32_ix
                0x0000000000059030                m68k_op_bfins_32_ai
                0x00000000000590a0                m68k_op_cas_32_ix
                0x0000000000059110                m68k_op_bfset_32_ai
                0x0000000000059180                m68k_op_bfexts_32_pcix
                0x00000000000591f0                m68k_op_bfextu_32_al
                0x0000000000059260                m68k_op_cas_8_pi
                0x00000000000592d0                m68k_op_cas_8_pi7
                0x0000000000059340                m68k_op_bftst_32_ix
                0x00000000000593b0                m68k_op_bfexts_32_ix
                0x0000000000059420                m68k_op_bfffo_32_al
                0x0000000000059490                m68k_op_cas_16_di
                0x0000000000059500                m68k_op_cas_32_pd
                0x0000000000059570                m68k_op_bfextu_32_ix
                0x00000000000595e0                m68k_op_bfffo_32_ai
                0x0000000000059650                m68k_op_cas_16_ai
                0x00000000000596c0                m68k_op_bftst_32_pcix
                0x0000000000059730                m68k_op_chk2cmp2_16_al
                0x00000000000597a0                m68k_op_bfins_32_ix
                0x0000000000059810                m68k_op_chk2cmp2_16_pcix
                0x0000000000059880                m68k_op_bfexts_32_ai
                0x00000000000598f0                m68k_op_chk2cmp2_8_pcdi
                0x0000000000059960                m68k_op_chk2cmp2_16_ai
                0x00000000000599d0                m68k_op_cas_32_ai
                0x0000000000059a40                m68k_op_chk2cmp2_32_ai
                0x0000000000059ab0                m68k_op_cas_8_pd7
                0x0000000000059b20                m68k_op_chk_32_di
                0x0000000000059b90                m68k_op_cas_32_al
                0x0000000000059c00                m68k_op_chk2cmp2_8_di
                0x0000000000059c70                m68k_op_cas_8_ai
                0x0000000000059ce0                m68k_op_chk_32_aw
                0x0000000000059d50                m68k_op_cas_8_al
                0x0000000000059dc0                m68k_op_movec_32_rc
                0x0000000000059e30                m68k_op_chk2cmp2_32_di
                0x0000000000059ea0                m68k_op_move_16_frc_pi
                0x0000000000059f10                m68k_op_move_16_frc_ix
                0x0000000000059f80                m68k_op_trapne_16
                0x0000000000059ff0                m68k_op_tst_8_pcdi
                0x000000000005a060                m68k_op_mull_32_pi
                0x000000000005a0d0                m68k_op_moves_16_pi
                0x000000000005a140                m68k_op_traple
                0x000000000005a1b0                m68k_op_trapt_32
                0x000000000005a220                m68k_op_pack_16_mm
                0x000000000005a290                m68k_op_traphi
                0x000000000005a300                m68k_op_move_16_frc_d
                0x000000000005a370                m68k_op_move_16_frc_di
                0x000000000005a3e0                m68k_op_move_16_frc_pd
                0x000000000005a450                m68k_op_trapcc
                0x000000000005a4c0                m68k_op_tst_32_pcdi
                0x000000000005a530                m68k_op_pack_16_mm_axy7
                0x000000000005a5a0                m68k_op_unpk_16_rr
                0x000000000005a610                m68k_op_move_16_frc_aw
                0x000000000005a680                m68k_op_pack_16_rr
                0x000000000005a6f0                m68k_op_trapf_16
                0x000000000005a760                m68k_op_tst_32_a
                0x000000000005a7d0                m68k_op_moves_8_pd7
                0x000000000005a840                m68k_op_mull_32_pd
                0x000000000005a8b0                m68k_op_tst_16_a
                0x000000000005a920                m68k_op_trapvc
                0x000000000005a990                m68k_op_move_16_frc_al
                0x000000000005aa00                m68k_op_trapvc_32
                0x000000000005aa70                m68k_op_mull_32_pcdi
                0x000000000005aae0                m68k_op_moves_16_ix
                0x000000000005ab50                m68k_op_rtd_32
                0x000000000005abc0                m68k_op_trapgt_16
                0x000000000005ac30                m68k_op_trapf
                0x000000000005aca0                m68k_op_trapge
                0x000000000005ad10                m68k_op_mull_32_di
                0x000000000005ad80                m68k_op_moves_8_ix
                0x000000000005adf0                m68k_op_traphi_32
                0x000000000005ae60                m68k_op_pack_16_mm_ax7
                0x000000000005aed0                m68k_op_traphi_16
                0x000000000005af40                m68k_op_trapgt
                0x000000000005afb0                m68k_op_moves_8_ai
                0x000000000005b020                m68k_op_moves_8_aw
                0x000000000005b090                m68k_op_trapcs_32
                0x000000000005b100                m68k_op_rtm_32
                0x000000000005b170                m68k_op_tst_8_i
                0x000000000005b1e0                m68k_op_tst_32_i
                0x000000000005b250                m68k_op_moves_32_al
                0x000000000005b2c0                m68k_op_trapt_16
                0x000000000005b330                m68k_op_pack_16_mm_ay7
                0x000000000005b3a0                m68k_op_trappl_32
                0x000000000005b410                m68k_op_moves_8_pi7
                0x000000000005b480                m68k_op_moves_32_pd
                0x000000000005b4f0                m68k_op_trapne
                0x000000000005b560                m68k_op_mull_32_pcix
                0x000000000005b5d0                m68k_op_moves_8_di
                0x000000000005b640                m68k_op_tst_16_pcdi
                0x000000000005b6b0                m68k_op_trapcc_32
                0x000000000005b720                m68k_op_trapvc_16
                0x000000000005b790                m68k_op_moves_16_ai
                0x000000000005b800                m68k_op_mull_32_aw
                0x000000000005b870                m68k_op_trapcs_16
                0x000000000005b8e0                m68k_op_tst_16_pcix
                0x000000000005b950                m68k_op_moves_8_al
                0x000000000005b9c0                m68k_op_moves_32_pi
                0x000000000005ba30                m68k_op_traplt_32
                0x000000000005baa0                m68k_op_trappl
                0x000000000005bb10                m68k_op_traplt
                0x000000000005bb80                m68k_op_mull_32_i
                0x000000000005bbf0                m68k_op_trapeq
                0x000000000005bc60                m68k_op_trapls
                0x000000000005bcd0                m68k_op_mull_32_ix
                0x000000000005bd40                m68k_op_trapcc_16
                0x000000000005bdb0                m68k_op_moves_32_di
                0x000000000005be20                m68k_op_trapvs
                0x000000000005be90                m68k_op_mull_32_al
                0x000000000005bf00                m68k_op_trapls_16
                0x000000000005bf70                m68k_op_trapmi_32
                0x000000000005bfe0                m68k_op_trapvs_32
                0x000000000005c050                m68k_op_mull_32_ai
                0x000000000005c0c0                m68k_op_tst_32_pcix
                0x000000000005c130                m68k_op_moves_16_pd
                0x000000000005c1a0                m68k_op_trapmi
                0x000000000005c210                m68k_op_trapge_16
                0x000000000005c280                m68k_op_moves_8_pd
                0x000000000005c2f0                m68k_op_traplt_16
                0x000000000005c360                m68k_op_traple_32
                0x000000000005c3d0                m68k_op_trapeq_16
                0x000000000005c440                m68k_op_traple_16
                0x000000000005c4b0                m68k_op_bls_32
                0x000000000005c4f0                m68k_op_bls_8
                0x000000000005c500                m68k_op_sls_8_d
                0x000000000005c550                m68k_op_movea_32_pcix
                0x000000000005c580                m68k_op_btst_8_r_pcix
                0x000000000005c5c0                m68k_op_adda_32_pcix
                0x000000000005c5f0                m68k_op_suba_32_pcix
                0x000000000005c620                m68k_op_move_32_d_pcix
                0x000000000005c670                m68k_op_move_8_pi7_pcix
                0x000000000005c6c0                m68k_op_move_8_pd7_pcix
                0x000000000005c710                m68k_op_and_32_er_pcix
                0x000000000005c770                m68k_op_or_8_er_pcix
                0x000000000005c7d0                m68k_op_move_8_d_pcix
                0x000000000005c830                m68k_op_or_32_er_pcix
                0x000000000005c890                m68k_op_btst_8_s_pcix
                0x000000000005c8e0                m68k_op_and_8_er_pcix
                0x000000000005c940                m68k_op_cmp_8_pcix
                0x000000000005c9a0                m68k_op_move_8_ai_pcix
                0x000000000005ca00                m68k_op_move_32_ai_pcix
                0x000000000005ca60                m68k_op_move_8_aw_pcix
                0x000000000005cac0                m68k_op_move_8_al_pcix
                0x000000000005cb20                m68k_op_move_32_aw_pcix
                0x000000000005cb90                m68k_op_move_8_pd_pcix
                0x000000000005cbf0                m68k_op_move_32_al_pcix
                0x000000000005cc50                m68k_op_move_8_pi_pcix
                0x000000000005ccc0                m68k_op_move_32_pi_pcix
                0x000000000005cd30                m68k_op_move_8_ix_pcix
                0x000000000005cd90                m68k_op_add_8_er_pcix
                0x000000000005ce00                m68k_op_sub_8_er_pcix
                0x000000000005ce70                m68k_op_move_32_ix_pcix
                0x000000000005ced0                m68k_op_cmp_32_pcix
                0x000000000005cf40                m68k_op_add_32_er_pcix
                0x000000000005cfc0                m68k_op_sub_32_er_pcix
                0x000000000005d040                m68k_op_cmpa_32_pcix
                0x000000000005d0b0                m68k_op_move_32_pd_pcix
                0x000000000005d130                m68k_op_movea_16_pcix
                0x000000000005d170                m68k_op_adda_16_pcix
                0x000000000005d1b0                m68k_op_suba_16_pcix
                0x000000000005d1f0                m68k_op_muls_16_pcix
                0x000000000005d250                m68k_op_or_16_er_pcix
                0x000000000005d2b0                m68k_op_move_16_d_pcix
                0x000000000005d310                m68k_op_mulu_16_pcix
                0x000000000005d370                m68k_op_and_16_er_pcix
                0x000000000005d3d0                m68k_op_move_16_ai_pcix
                0x000000000005d430                m68k_op_move_16_toc_pcix
                0x000000000005d490                m68k_op_cmp_16_pcix
                0x000000000005d4f0                m68k_op_move_16_aw_pcix
                0x000000000005d560                m68k_op_move_16_al_pcix
                0x000000000005d5c0                m68k_op_move_16_pi_pcix
                0x000000000005d630                m68k_op_move_16_pd_pcix
                0x000000000005d6a0                m68k_op_chk_16_pcix
                0x000000000005d720                m68k_op_move_16_ix_pcix
                0x000000000005d780                m68k_op_add_16_er_pcix
                0x000000000005d800                m68k_op_sub_16_er_pcix
                0x000000000005d880                m68k_op_divu_16_pcix
                0x000000000005d910                m68k_op_cmpa_16_pcix
                0x000000000005d980                m68k_op_move_16_tos_pcix
                0x000000000005d9b0                m68k_op_move_16_di_pcix
                0x000000000005da30                m68k_op_tst_8_aw
                0x000000000005da80                m68k_op_tst_8_al
                0x000000000005dad0                m68k_op_tst_32_aw
                0x000000000005db20                m68k_op_tst_32_al
                0x000000000005db70                m68k_op_movea_32_aw
                0x000000000005dbc0                m68k_op_movea_32_al
                0x000000000005dc10                m68k_op_tst_32_pi
                0x000000000005dc60                m68k_op_btst_8_r_aw
                0x000000000005dcb0                m68k_op_btst_8_r_al
                0x000000000005dd00                m68k_op_tst_8_pi
                0x000000000005dd50                m68k_op_adda_32_aw
                0x000000000005dda0                m68k_op_adda_32_al
                0x000000000005ddf0                m68k_op_move_32_d_al
                0x000000000005de50                m68k_op_suba_32_aw
                0x000000000005dea0                m68k_op_move_32_d_aw
                0x000000000005df00                m68k_op_suba_32_al
                0x000000000005df50                m68k_op_movea_32_pi
                0x000000000005df90                m68k_op_tst_32_pd
                0x000000000005dfe0                m68k_op_movea_32_pcdi
                0x000000000005e030                m68k_op_move_8_pi7_aw
                0x000000000005e0a0                m68k_op_move_8_pd7_aw
                0x000000000005e100                m68k_op_move_8_pi7_al
                0x000000000005e160                m68k_op_move_8_pd7_al
                0x000000000005e1c0                m68k_op_btst_8_r_pcdi
                0x000000000005e210                m68k_op_and_32_er_aw
                0x000000000005e280                m68k_op_and_32_er_al
                0x000000000005e2f0                m68k_op_or_8_er_aw
                0x000000000005e360                m68k_op_or_8_er_al
                0x000000000005e3d0                m68k_op_move_8_d_aw
                0x000000000005e440                m68k_op_move_8_d_al
                0x000000000005e4b0                m68k_op_or_32_er_aw
                0x000000000005e520                m68k_op_or_32_er_al
                0x000000000005e590                m68k_op_adda_32_pi
                0x000000000005e5e0                m68k_op_move_32_d_pi
                0x000000000005e650                m68k_op_suba_32_pi
                0x000000000005e6a0                m68k_op_move_32_d_pcdi
                0x000000000005e710                m68k_op_suba_32_pcdi
                0x000000000005e760                m68k_op_adda_32_pcdi
                0x000000000005e7b0                m68k_op_btst_8_s_aw
                0x000000000005e810                m68k_op_and_8_er_aw
                0x000000000005e880                m68k_op_and_8_er_al
                0x000000000005e8f0                m68k_op_btst_8_s_al
                0x000000000005e950                m68k_op_movea_32_pd
                0x000000000005e990                m68k_op_tst_8_ix
                0x000000000005e9d0                m68k_op_move_8_pd7_pcdi
                0x000000000005ea40                m68k_op_move_8_pi7_pcdi
                0x000000000005eab0                m68k_op_btst_8_r_pi
                0x000000000005eb00                m68k_op_tst_32_ix
                0x000000000005eb50                m68k_op_and_32_er_pi
                0x000000000005ebc0                m68k_op_or_32_er_pi
                0x000000000005ec30                m68k_op_cmp_8_aw
                0x000000000005eca0                m68k_op_cmp_8_al
                0x000000000005ed10                m68k_op_move_8_ai_aw
                0x000000000005ed80                m68k_op_move_8_ai_al
                0x000000000005edf0                m68k_op_and_32_er_pcdi
                0x000000000005ee60                m68k_op_or_8_er_pcdi
                0x000000000005eed0                m68k_op_move_8_d_pcdi
                0x000000000005ef40                m68k_op_or_32_er_pcdi
                0x000000000005efb0                m68k_op_adda_32_pd
                0x000000000005f000                m68k_op_suba_32_pd
                0x000000000005f050                m68k_op_move_32_d_pd
                0x000000000005f0c0                m68k_op_move_8_aw_aw
                0x000000000005f130                m68k_op_move_32_ai_aw
                0x000000000005f1a0                m68k_op_move_8_al_aw
                0x000000000005f210                m68k_op_move_32_ai_al
                0x000000000005f280                m68k_op_move_8_aw_al
                0x000000000005f2f0                m68k_op_move_8_al_al
                0x000000000005f360                m68k_op_and_8_er_pcdi
                0x000000000005f3d0                m68k_op_btst_8_s_pcdi
                0x000000000005f430                m68k_op_move_8_pd7_pi
                0x000000000005f4a0                m68k_op_move_8_pi7_pi
                0x000000000005f510                m68k_op_move_32_aw_aw
                0x000000000005f590                m68k_op_move_8_pd_aw
                0x000000000005f610                m68k_op_move_32_al_aw
                0x000000000005f690                m68k_op_move_8_pi_aw
                0x000000000005f710                m68k_op_move_32_aw_al
                0x000000000005f790                m68k_op_move_8_pd_al
                0x000000000005f810                m68k_op_move_32_al_al
                0x000000000005f890                m68k_op_move_8_pi_al
                0x000000000005f910                m68k_op_movea_32_ix
                0x000000000005f950                m68k_op_move_8_ix_aw
                0x000000000005f9c0                m68k_op_move_32_pi_aw
                0x000000000005fa40                m68k_op_move_8_ix_al
                0x000000000005fab0                m68k_op_move_32_pi_al
                0x000000000005fb30                m68k_op_and_32_er_pd
                0x000000000005fba0                m68k_op_cmpm_8
                0x000000000005fc20                m68k_op_or_8_er_pi
                0x000000000005fc90                m68k_op_move_8_d_pi
                0x000000000005fd00                m68k_op_or_32_er_pd
                0x000000000005fd70                m68k_op_cmp_8_pcdi
                0x000000000005fde0                m68k_op_move_8_ai_pcdi
                0x000000000005fe50                m68k_op_btst_8_r_ix
                0x000000000005fea0                m68k_op_add_8_er_aw
                0x000000000005ff20                m68k_op_add_8_er_al
                0x000000000005ffa0                m68k_op_cmpi_8_aw
                0x0000000000060020                m68k_op_cmpi_8_al
                0x00000000000600a0                m68k_op_sub_8_er_aw
                0x0000000000060120                m68k_op_move_32_ix_aw
                0x0000000000060190                m68k_op_sub_8_er_al
                0x0000000000060210                m68k_op_move_32_ix_al
                0x0000000000060280                m68k_op_and_8_er_pi
                0x00000000000602f0                m68k_op_btst_8_s_pi
                0x0000000000060350                m68k_op_move_32_ai_pi
                0x00000000000603c0                m68k_op_move_8_aw_pcdi
                0x0000000000060430                m68k_op_move_32_ai_pcdi
                0x00000000000604a0                m68k_op_move_8_al_pcdi
                0x0000000000060510                m68k_op_suba_32_ix
                0x0000000000060550                m68k_op_move_32_d_ix
                0x00000000000605b0                m68k_op_adda_32_ix
                0x00000000000605f0                m68k_op_move_32_al_pi
                0x0000000000060670                m68k_op_move_32_aw_pi
                0x00000000000606f0                m68k_op_move_8_pd_pcdi
                0x0000000000060770                m68k_op_move_32_al_pcdi
                0x00000000000607f0                m68k_op_move_8_pi_pcdi
                0x0000000000060870                m68k_op_move_32_aw_pcdi
                0x00000000000608f0                m68k_op_cmp_32_aw
                0x0000000000060970                m68k_op_cmp_32_al
                0x00000000000609f0                m68k_op_move_8_pi7_ix
                0x0000000000060a50                m68k_op_move_8_pd7_ix
                0x0000000000060ab0                m68k_op_move_32_pi_pcdi
                0x0000000000060b30                m68k_op_move_8_ix_pcdi
                0x0000000000060ba0                m68k_op_move_32_pi_pi
                0x0000000000060c20                m68k_op_cmp_8_pi
                0x0000000000060c90                m68k_op_move_8_ai_pi
                0x0000000000060d00                m68k_op_sub_8_er_pcdi
                0x0000000000060d90                m68k_op_add_8_er_pcdi
                0x0000000000060e10                m68k_op_move_32_ix_pcdi
                0x0000000000060e80                m68k_op_cmpm_32
                0x0000000000060f10                m68k_op_move_32_ix_pi
                0x0000000000060f80                m68k_op_and_32_er_ix
                0x0000000000060fe0                m68k_op_or_8_er_ix
                0x0000000000061040                m68k_op_move_8_d_ix
                0x00000000000610a0                m68k_op_or_32_er_ix
                0x0000000000061100                m68k_op_add_32_er_aw
                0x0000000000061190                m68k_op_add_32_er_al
                0x0000000000061220                m68k_op_sub_32_er_al
                0x00000000000612b0                m68k_op_sub_32_er_aw
                0x0000000000061340                m68k_op_cmpm_8_ax7
                0x00000000000613b0                m68k_op_move_32_ai_pd
                0x0000000000061420                m68k_op_move_8_al_pi
                0x0000000000061490                m68k_op_move_8_aw_pi
                0x0000000000061510                m68k_op_tst_8_pcix
                0x00000000000615c0                m68k_op_chk2cmp2_8_aw
                0x0000000000061670                m68k_op_movec_32_cr
                0x0000000000061720                m68k_op_cas_16_pi
                0x00000000000617d0                m68k_op_callm_32_aw
                0x0000000000061880                m68k_op_chk2cmp2_32_pcix
                0x0000000000061930                m68k_op_cmpi_32_pcdi
                0x00000000000619e0                m68k_op_chk_32_pi
                0x0000000000061a90                m68k_op_pflush_32
                0x0000000000061b40                m68k_op_moves_32_ai
                0x0000000000061bf0                m68k_op_trapmi_16
                0x0000000000061ca0                m68k_op_moves_32_aw
                0x0000000000061d50                m68k_op_bfchg_32_al
                0x0000000000061e00                m68k_op_chk2cmp2_32_aw
                0x0000000000061eb0                m68k_op_chk_32_pcdi
                0x0000000000061f60                m68k_op_unpk_16_mm
                0x0000000000062010                m68k_op_callm_32_ix
                0x00000000000620c0                m68k_op_move_16_frc_ai
                0x0000000000062170                m68k_op_moves_16_al
                0x0000000000062220                m68k_op_bfins_32_aw
                0x00000000000622d0                m68k_op_moves_16_di
                0x0000000000062380                m68k_op_bfexts_32_aw
                0x0000000000062430                m68k_op_chk2cmp2_32_al
                0x00000000000624e0                m68k_op_unpk_16_mm_ay7
                0x0000000000062590                m68k_op_chk_32_ix
                0x0000000000062640                m68k_op_trapgt_32
                0x00000000000626f0                m68k_op_trapge_32
                0x00000000000627a0                m68k_op_trapne_32
                0x0000000000062850                m68k_op_tst_16_i
                0x0000000000062900                m68k_op_trapcs
                0x00000000000629b0                m68k_op_bfffo_32_d
                0x0000000000062a60                m68k_op_chk_32_i
                0x0000000000062b10                m68k_op_mull_32_d
                0x0000000000062bc0                m68k_op_moves_8_pi
                0x0000000000062c70                m68k_op_moves_16_aw
                0x0000000000062d20                m68k_op_moves_32_ix
                0x0000000000062dd0                m68k_op_trapls_32
                0x0000000000062e80                m68k_op_chk_32_pd
                0x0000000000062f30                m68k_op_cas2_32
                0x0000000000062fe0                m68k_op_trapt
                0x0000000000063090                m68k_op_trappl_16
                0x0000000000063140                m68k_op_bfchg_32_aw
                0x00000000000631f0                m68k_op_unpk_16_mm_ax7
                0x00000000000632a0                m68k_op_trapvs_16
                0x0000000000063350                m68k_op_bfset_32_ix
                0x0000000000063400                m68k_op_trapf_32
                0x00000000000634b0                m68ki_build_opcode_table
 .text          0x0000000000063810       0x23 x86_memcpy.o
                0x0000000000063810                asm_memcpy
 *fill*         0x0000000000063833        0x1 
 .text          0x0000000000063834       0xc0 x86_ctv.o
                0x0000000000063834                blur_bitmap_16
                0x000000000006387c                blur_bitmap_15
                0x00000000000638c4                test_ctv
 .text          0x00000000000638f4       0x31 x86_mmx_memcpy.o
                0x00000000000638f4                mmx_memcpy
 *fill*         0x0000000000063925        0x3 
 .text          0x0000000000063928     0x13a0 x86_tiles.o
                0x0000000000063928                asm_tiles_init
                0x0000000000063968                drawtile1_solid
                0x0000000000063b48                drawtile1
                0x0000000000063d68                drawtile2_solid
                0x0000000000063fc8                drawtile2
                0x0000000000064228                drawtile3_solid
                0x0000000000064508                drawtile3
                0x0000000000064848                drawtile4_solid
                0x0000000000064a68                drawtile4
 .text          0x0000000000064cc8     0xc50f x86-mz80.o
                0x0000000000070b60                mz80GetContext
                0x0000000000070b60                _mz80GetContext
                0x0000000000070b60                mz80GetContext_
                0x0000000000070b88                mz80SetContext_
                0x0000000000070b88                _mz80SetContext
                0x0000000000070b88                mz80SetContext
                0x0000000000070bb0                _mz80GetContextSize
                0x0000000000070bb0                mz80GetContextSize_
                0x0000000000070bb0                mz80GetContextSize
                0x0000000000070bb8                _mz80GetElapsedTicks
                0x0000000000070bb8                mz80GetElapsedTicks
                0x0000000000070bb8                mz80GetElapsedTicks_
                0x0000000000070bd0                mz80ReleaseTimeslice
                0x0000000000070bd0                _mz80ReleaseTimeslice
                0x0000000000070bd0                mz80ReleaseTimeslice_
                0x0000000000070be8                mz80reset_
                0x0000000000070be8                _mz80reset
                0x0000000000070be8                mz80reset
                0x0000000000070c68                _mz80int
                0x0000000000070c68                mz80int
                0x0000000000070c68                mz80int_
                0x0000000000070d14                mz80ClearPendingInterrupt
                0x0000000000070d14                _mz80ClearPendingInterrupt
                0x0000000000070d14                mz80ClearPendingInterrupt_
                0x0000000000070d1c                mz80nmi_
                0x0000000000070d1c                _mz80nmi
                0x0000000000070d1c                mz80nmi
                0x0000000000070d7c                mz80exec
                0x0000000000070d7c                mz80exec_
                0x0000000000070d7c                _mz80exec
                0x0000000000070f6c                mz80init_
                0x0000000000070f6c                mz80init
                0x0000000000070f6c                _mz80init
                0x0000000000070f70                mz80shutdown_
                0x0000000000070f70                _mz80shutdown
                0x0000000000070f70                mz80shutdown
                0x0000000000070fe8                mz80SetRegisterValue
                0x0000000000070fe8                mz80SetRegisterValue_
                0x0000000000070fe8                _mz80SetRegisterValue
                0x0000000000071034                mz80GetRegisterValue_
                0x0000000000071034                mz80GetRegisterValue
                0x0000000000071034                _mz80GetRegisterValue
                0x0000000000071050                mz80GetRegisterName
                0x0000000000071050                mz80GetRegisterName_
                0x0000000000071050                _mz80GetRegisterName
                0x0000000000071068                mz80GetRegisterTextValue_
                0x0000000000071068                mz80GetRegisterTextValue
                0x0000000000071068                _mz80GetRegisterTextValue
                0x0000000000071090                _mz80WriteValue
                0x0000000000071090                mz80WriteValue
                0x0000000000071090                mz80WriteValue_
                0x0000000000071134                mz80ReadValue_
                0x0000000000071134                _mz80ReadValue
                0x0000000000071134                mz80ReadValue
 *fill*         0x00000000000711d7        0x1 
 .text          0x00000000000711d8    0x6ffa7 starcpu.o
                0x00000000000711d8                _s68000init
                0x00000000000711d8                s68000init_
                0x00000000000711d8                s68000init
                0x0000000000071208                s68000exec_
                0x0000000000071208                s68000exec
                0x0000000000071208                _s68000exec
                0x00000000000713c2                _s68000reset
                0x00000000000713c2                s68000reset
                0x00000000000713c2                s68000reset_
                0x000000000007147c                s68000interrupt
                0x000000000007147c                s68000interrupt_
                0x000000000007147c                _s68000interrupt
                0x00000000000714f7                _s68000flushInterrupts
                0x00000000000714f7                s68000flushInterrupts
                0x00000000000714f7                s68000flushInterrupts_
                0x0000000000071558                s68000GetContextSize
                0x0000000000071558                _s68000GetContextSize
                0x0000000000071558                s68000GetContextSize_
                0x000000000007155e                s68000GetContext
                0x000000000007155e                _s68000GetContext
                0x000000000007155e                s68000GetContext_
                0x00000000000716c8                s68000SetContext_
                0x00000000000716c8                _s68000SetContext
                0x00000000000716c8                s68000SetContext
                0x0000000000071832                s68000fetch_
                0x0000000000071832                _s68000fetch
                0x0000000000071832                s68000fetch
                0x00000000000718a1                _s68000readOdometer
                0x00000000000718a1                s68000readOdometer
                0x00000000000718a1                s68000readOdometer_
                0x00000000000718ba                _s68000tripOdometer
                0x00000000000718ba                s68000tripOdometer_
                0x00000000000718ba                s68000tripOdometer
                0x00000000000718ed                s68000controlOdometer
                0x00000000000718ed                s68000controlOdometer_
                0x00000000000718ed                _s68000controlOdometer
                0x00000000000718f7                s68000releaseTimeslice
                0x00000000000718f7                _s68000releaseTimeslice
                0x00000000000718f7                s68000releaseTimeslice_
                0x000000000007190a                _s68000readPC
                0x000000000007190a                s68000readPC_
                0x000000000007190a                s68000readPC
 *fill*         0x00000000000e117f        0x1 
 .text          0x00000000000e1180      0x230 ../../../contrib/sdk/lib/libSDLn.a(SDL.o)
                0x00000000000e1180                SDL_InitSubSystem
                0x00000000000e12a0                SDL_Init
                0x00000000000e12f0                SDL_QuitSubSystem
                0x00000000000e1360                SDL_WasInit
                0x00000000000e1380                SDL_Quit
                0x00000000000e13a0                SDL_Linked_Version
 .text          0x00000000000e13b0      0x670 ../../../contrib/sdk/lib/libSDLn.a(SDL_error.o)
                0x00000000000e13b0                SDL_printf
                0x00000000000e1420                SDL_GetErrorMsgUNICODE
                0x00000000000e17c0                SDL_GetErrorMsg
                0x00000000000e1830                SDL_SetError
                0x00000000000e1990                SDL_GetError
                0x00000000000e19b0                SDL_ClearError
                0x00000000000e19c0                SDL_Error
 .text          0x00000000000e1a20       0x40 ../../../contrib/sdk/lib/libSDLn.a(SDL_fatal.o)
                0x00000000000e1a20                SDL_printf_error
                0x00000000000e1a40                SDL_InstallParachute
                0x00000000000e1a50                SDL_UninstallParachute
 .text          0x00000000000e1a60      0x1c0 ../../../contrib/sdk/lib/libSDLn.a(SDL_getenv.o)
                0x00000000000e1a60                SDL_putenv
                0x00000000000e1ba0                SDL_getenv
 .text          0x00000000000e1c20      0xd60 ../../../contrib/sdk/lib/libSDLn.a(SDL_kolibri_audio.o)
                0x00000000000e1ea0                SDL_AudioInit
                0x00000000000e1f00                SDL_AudioQuit
                0x00000000000e1f10                SDL_AudioDriverName
                0x00000000000e1f50                SDL_OpenAudio
                0x00000000000e2880                SDL_CloseAudio
                0x00000000000e28e0                SDL_PauseAudio
                0x00000000000e2930                SDL_LockAudio
                0x00000000000e2970                SDL_UnlockAudio
 .text          0x00000000000e2980      0x960 ../../../contrib/sdk/lib/libSDLn.a(SDL_events.o)
                0x00000000000e2ab0                SDL_Lock_EventThread
                0x00000000000e2b00                SDL_Unlock_EventThread
                0x00000000000e2b30                SDL_EventThreadID
                0x00000000000e2b40                SDL_StopEventLoop
                0x00000000000e2b70                SDL_StartEventLoop
                0x00000000000e2d00                SDL_PeepEvents
                0x00000000000e3070                SDL_PumpEvents
                0x00000000000e3090                SDL_PollEvent
                0x00000000000e30c0                SDL_WaitEvent
                0x00000000000e3110                SDL_PushEvent
                0x00000000000e3130                SDL_SetEventFilter
                0x00000000000e3160                SDL_GetEventFilter
                0x00000000000e3170                SDL_EventState
                0x00000000000e3260                SDL_PrivateSysWMEvent
 .text          0x00000000000e32e0      0xde0 ../../../contrib/sdk/lib/libSDLn.a(SDL_keyboard.o)
                0x00000000000e32e0                SDL_KeyboardInit
                0x00000000000e3c60                SDL_EnableUNICODE
                0x00000000000e3c80                SDL_GetKeyState
                0x00000000000e3ca0                SDL_GetModState
                0x00000000000e3cb0                SDL_SetModState
                0x00000000000e3cc0                SDL_GetKeyName
                0x00000000000e3cf0                SDL_PrivateKeyboard
                0x00000000000e3ff0                SDL_ResetKeyboard
                0x00000000000e4050                SDL_CheckKeyRepeat
                0x00000000000e4060                SDL_EnableKeyRepeat
 .text          0x00000000000e40c0      0x500 ../../../contrib/sdk/lib/libSDLn.a(SDL_mouse.o)
                0x00000000000e40c0                SDL_MouseInit
                0x00000000000e40f0                SDL_GetMouseState
                0x00000000000e4120                SDL_GetRelativeMouseState
                0x00000000000e4160                SDL_PrivateMouseMotion
                0x00000000000e4360                SDL_PrivateMouseButton
 .text          0x00000000000e45c0       0x70 ../../../contrib/sdk/lib/libSDLn.a(SDL_quit.o)
                0x00000000000e45c0                SDL_QuitInit
                0x00000000000e45d0                SDL_PrivateQuit
 .text          0x00000000000e4630       0xd0 ../../../contrib/sdk/lib/libSDLn.a(SDL_sysmutex.o)
                0x00000000000e4630                SDL_CreateMutex
                0x00000000000e46a0                SDL_DestroyMutex
                0x00000000000e46e0                SDL_mutexP
                0x00000000000e46f0                SDL_mutexV
 .text          0x00000000000e4700       0xc0 ../../../contrib/sdk/lib/libSDLn.a(SDL_syssem.o)
                0x00000000000e4700                SDL_CreateSemaphore
                0x00000000000e4720                SDL_DestroySemaphore
                0x00000000000e4730                SDL_SemTryWait
                0x00000000000e4750                SDL_SemWaitTimeout
                0x00000000000e4770                SDL_SemWait
                0x00000000000e4790                SDL_SemValue
                0x00000000000e47a0                SDL_SemPost
 .text          0x00000000000e47c0       0x60 ../../../contrib/sdk/lib/libSDLn.a(SDL_systhread.o)
                0x00000000000e47c0                SDL_SYS_CreateThread
                0x00000000000e47e0                SDL_SYS_SetupThread
                0x00000000000e47f0                SDL_ThreadID
                0x00000000000e4800                SDL_SYS_WaitThread
                0x00000000000e4810                SDL_SYS_KillThread
 .text          0x00000000000e4820      0x470 ../../../contrib/sdk/lib/libSDLn.a(SDL_thread.o)
                0x00000000000e4890                SDL_ThreadsInit
                0x00000000000e48d0                SDL_ThreadsQuit
                0x00000000000e48f0                SDL_GetErrBuf
                0x00000000000e4970                SDL_RunThread
                0x00000000000e49b0                SDL_CreateThread
                0x00000000000e4be0                SDL_WaitThread
                0x00000000000e4c40                SDL_GetThreadID
                0x00000000000e4c60                SDL_KillThread
 .text          0x00000000000e4c90      0x490 ../../../contrib/sdk/lib/libSDLn.a(SDL_timer.o)
                0x00000000000e4ca0                SDL_SetTimerThreaded
                0x00000000000e4ce0                SDL_ThreadedTimerCheck
                0x00000000000e4e00                SDL_AddTimer
                0x00000000000e4f00                SDL_RemoveTimer
                0x00000000000e4f90                SDL_SetTimer
                0x00000000000e5060                SDL_TimerInit
                0x00000000000e50c0                SDL_TimerQuit
 .text          0x00000000000e5120       0xe0 ../../../contrib/sdk/lib/libSDLn.a(SDL_systimer.o)
                0x00000000000e5120                SDL_StartTicks
                0x00000000000e5140                SDL_GetTicks
                0x00000000000e5160                SDL_Delay
                0x00000000000e51c0                SDL_SYS_TimerInit
                0x00000000000e51d0                SDL_SYS_TimerQuit
                0x00000000000e51e0                SDL_SYS_StartTimer
                0x00000000000e51f0                SDL_SYS_StopTimer
 .text          0x00000000000e5200     0x1530 ../../../contrib/sdk/lib/libSDLn.a(SDL_cursor.o)
                0x00000000000e5200                SDL_GetCursor
                0x00000000000e5210                SDL_WarpMouse
                0x00000000000e5290                SDL_CursorPaletteChanged
                0x00000000000e52a0                SDL_MouseRect
                0x00000000000e5370                SDL_DrawCursorNoLock
                0x00000000000e5ce0                SDL_DrawCursor
                0x00000000000e5d90                SDL_EraseCursorNoLock
                0x00000000000e5f40                SDL_EraseCursor
                0x00000000000e5ff0                SDL_SetCursor
                0x00000000000e6190                SDL_FreeCursor
                0x00000000000e6220                SDL_CursorQuit
                0x00000000000e62b0                SDL_CreateCursor
                0x00000000000e6500                SDL_CursorInit
                0x00000000000e6560                SDL_ShowCursor
                0x00000000000e6600                SDL_MoveCursor
                0x00000000000e66a0                SDL_ResetCursor
 .text          0x00000000000e6730      0xe90 ../../../contrib/sdk/lib/libSDLn.a(SDL_pixels.o)
                0x00000000000e67a0                SDL_FormatChanged
                0x00000000000e67f0                SDL_FreeFormat
                0x00000000000e6840                SDL_AllocFormat
                0x00000000000e6b90                SDL_ReallocFormat
                0x00000000000e6be0                SDL_DitherColors
                0x00000000000e6c00                SDL_CalculatePitch
                0x00000000000e6c50                SDL_FindColor
                0x00000000000e6de0                SDL_MapRGB
                0x00000000000e6e80                SDL_MapRGBA
                0x00000000000e6f30                SDL_GetRGBA
                0x00000000000e7030                SDL_GetRGB
                0x00000000000e70f0                SDL_ApplyGamma
                0x00000000000e7170                SDL_InvalidateMap
                0x00000000000e71b0                SDL_MapSurface
                0x00000000000e7500                SDL_FreeBlitMap
                0x00000000000e7560                SDL_AllocBlitMap
 .text          0x00000000000e75c0     0x1180 ../../../contrib/sdk/lib/libSDLn.a(SDL_surface.o)
                0x00000000000e75c0                SDL_SetColorKey
                0x00000000000e76d0                SDL_SetAlpha
                0x00000000000e78b0                SDL_SetClipRect
                0x00000000000e79a0                SDL_GetClipRect
                0x00000000000e79c0                SDL_LowerBlit
                0x00000000000e7a40                SDL_UpperBlit
                0x00000000000e7ca0                SDL_LockSurface
                0x00000000000e7d10                SDL_UnlockSurface
                0x00000000000e7d70                SDL_FillRect
                0x00000000000e8170                SDL_FreeSurface
                0x00000000000e8230                SDL_CreateRGBSurface
                0x00000000000e8450                SDL_CreateRGBSurfaceFrom
                0x00000000000e84c0                SDL_ConvertSurface
 .text          0x00000000000e8740     0x1ef0 ../../../contrib/sdk/lib/libSDLn.a(SDL_video.o)
                0x00000000000e87a0                SDL_VideoDriverName
                0x00000000000e87e0                SDL_GetVideoSurface
                0x00000000000e8800                SDL_GetVideoInfo
                0x00000000000e8820                SDL_ListModes
                0x00000000000e8860                SDL_VideoModeOK
                0x00000000000e8960                SDL_DisplayFormat
                0x00000000000e89c0                SDL_DisplayFormatAlpha
                0x00000000000e8ad0                SDL_UpdateRects
                0x00000000000e8d10                SDL_UpdateRect
                0x00000000000e8f30                SDL_Flip
                0x00000000000e9040                SDL_SetPalette
                0x00000000000e9200                SDL_SetColors
                0x00000000000e9230                SDL_VideoQuit
                0x00000000000e9390                SDL_VideoInit
                0x00000000000e9640                SDL_GL_LoadLibrary
                0x00000000000e9680                SDL_GL_GetProcAddress
                0x00000000000e96e0                SDL_GL_SetAttribute
                0x00000000000e97e0                SDL_GL_GetAttribute
                0x00000000000e9830                SDL_GL_SwapBuffers
                0x00000000000e9850                SDL_GL_UpdateRectsLock
                0x00000000000e9860                SDL_GL_UpdateRects
                0x00000000000e9870                SDL_GL_Lock
                0x00000000000e9880                SDL_GL_Unlock
                0x00000000000e9890                SDL_WM_SetCaption
                0x00000000000e9970                SDL_WM_GetCaption
                0x00000000000e99a0                SDL_WM_SetIcon
                0x00000000000e9d20                SDL_WM_GrabInput
                0x00000000000e9db0                SDL_SetVideoMode
                0x00000000000ea520                SDL_WM_IconifyWindow
                0x00000000000ea550                SDL_WM_ToggleFullScreen
                0x00000000000ea600                SDL_GetWMInfo
 .text          0x00000000000ea630      0x850 ../../../contrib/sdk/lib/libSDLn.a(SDL_kolibri_video.o)
                0x00000000000ea660                kos_SetColors
                0x00000000000ea670                kos_SetCaption
                0x00000000000ea720                kos_FreeWMCursor
                0x00000000000ea760                kos_ShowWMCursor
                0x00000000000ea980                kos_VideoQuit
                0x00000000000eaa30                kos_CheckMouseMode
                0x00000000000eaa50                kos_CreateWMCursor
                0x00000000000eabc0                kos_SDL_RepaintWnd
                0x00000000000eacb0                kos_SetVideoMode
                0x00000000000eae70                kos_FinalQuit
 .text          0x00000000000eae80      0x110 ../../../contrib/sdk/lib/libSDLn.a(SDL_active.o)
                0x00000000000eae80                SDL_AppActiveInit
                0x00000000000eae90                SDL_GetAppState
                0x00000000000eaea0                SDL_PrivateAppActive
 .text          0x00000000000eaf90       0xe0 ../../../contrib/sdk/lib/libSDLn.a(SDL_resize.o)
                0x00000000000eaf90                SDL_PrivateResize
 .text          0x00000000000eb070     0x4650 ../../../contrib/sdk/lib/libSDLn.a(SDL_RLEaccel.o)
                0x00000000000eb580                SDL_RLEBlit
                0x00000000000edcb0                SDL_RLEAlphaBlit
                0x00000000000ee7b0                SDL_UnRLESurface
                0x00000000000eea10                SDL_RLESurface
 .text          0x00000000000ef6c0      0x730 ../../../contrib/sdk/lib/libSDLn.a(SDL_blit.o)
                0x00000000000efaf0                SDL_CalculateBlit
 .text          0x00000000000efdf0      0xd70 ../../../contrib/sdk/lib/libSDLn.a(SDL_blit_0.o)
                0x00000000000f0af0                SDL_CalculateBlit0
 .text          0x00000000000f0b60     0x28a0 ../../../contrib/sdk/lib/libSDLn.a(SDL_blit_1.o)
                0x00000000000f3390                SDL_CalculateBlit1
 .text          0x00000000000f3400     0x6bf0 ../../../contrib/sdk/lib/libSDLn.a(SDL_blit_N.o)
                0x00000000000f9e40                SDL_CalculateBlitN
 .text          0x00000000000f9ff0      0x390 ../../../contrib/sdk/lib/libSDLn.a(SDL_kolibri_events.o)
                0x00000000000f9ff0                kos_InitOSKeymap
                0x00000000000fa010                kos_PumpEvents
 .text          0x00000000000fa380       0x2b ../../../contrib/sdk/lib/libSDLn.a(mmx_main.o)
                0x00000000000fa380                ConvertMMX
                0x00000000000fa380                ConvertMMX
 *fill*         0x00000000000fa3ab        0x1 
 .text          0x00000000000fa3ac      0x34c ../../../contrib/sdk/lib/libSDLn.a(mmxp2_32.o)
                0x00000000000fa3ac                ConvertMMXpII32_24RGB888
                0x00000000000fa3ac                ConvertMMXpII32_24RGB888
                0x00000000000fa437                ConvertMMXpII32_16RGB565
                0x00000000000fa437                ConvertMMXpII32_16RGB565
                0x00000000000fa4ee                ConvertMMXpII32_16BGR565
                0x00000000000fa4ee                ConvertMMXpII32_16BGR565
                0x00000000000fa5ab                ConvertMMXpII32_16BGR555
                0x00000000000fa5ab                ConvertMMXpII32_16BGR555
                0x00000000000fa5bb                ConvertMMXpII32_16RGB555
                0x00000000000fa5bb                ConvertMMXpII32_16RGB555
 .text          0x00000000000fa6f8       0x60 ../../../contrib/sdk/lib/libSDLn.a(x86_main.o)
                0x00000000000fa6f8                ConvertX86
                0x00000000000fa6f8                ConvertX86
                0x00000000000fa721                Hermes_X86_CPU
                0x00000000000fa721                Hermes_X86_CPU
 .text          0x00000000000fa758      0x35d ../../../contrib/sdk/lib/libSDLn.a(x86p_16.o)
                0x00000000000fa758                ConvertX86p16_16BGR565
                0x00000000000fa758                ConvertX86p16_16BGR565
                0x00000000000fa821                ConvertX86p16_16RGB555
                0x00000000000fa821                ConvertX86p16_16RGB555
                0x00000000000fa8dd                ConvertX86p16_16BGR555
                0x00000000000fa8dd                ConvertX86p16_16BGR555
                0x00000000000fa9c0                ConvertX86p16_8RGB332
                0x00000000000fa9c0                ConvertX86p16_8RGB332
 *fill*         0x00000000000faab5        0x3 
 .text          0x00000000000faab8      0x622 ../../../contrib/sdk/lib/libSDLn.a(x86p_32.o)
                0x00000000000faab8                ConvertX86p32_32BGR888
                0x00000000000faab8                ConvertX86p32_32BGR888
                0x00000000000fab24                ConvertX86p32_32RGBA888
                0x00000000000fab24                ConvertX86p32_32RGBA888
                0x00000000000fab84                ConvertX86p32_32BGRA888
                0x00000000000fab84                ConvertX86p32_32BGRA888
                0x00000000000fabde                ConvertX86p32_24RGB888
                0x00000000000fabde                ConvertX86p32_24RGB888
                0x00000000000fac79                ConvertX86p32_24BGR888
                0x00000000000fac79                ConvertX86p32_24BGR888
                0x00000000000fad11                ConvertX86p32_16RGB565
                0x00000000000fad11                ConvertX86p32_16RGB565
                0x00000000000fadd4                ConvertX86p32_16BGR565
                0x00000000000fadd4                ConvertX86p32_16BGR565
                0x00000000000fae9f                ConvertX86p32_16RGB555
                0x00000000000fae9f                ConvertX86p32_16RGB555
                0x00000000000faf62                ConvertX86p32_16BGR555
                0x00000000000faf62                ConvertX86p32_16BGR555
                0x00000000000fb02d                ConvertX86p32_8RGB332
                0x00000000000fb02d                ConvertX86p32_8RGB332
 *fill*         0x00000000000fb0da        0x6 
 .text          0x00000000000fb0e0     0x6730 ../../../contrib/sdk/lib/libSDLn.a(SDL_blit_A.o)
                0x0000000000101610                SDL_CalculateAlphaBlit
 .text          0x0000000000101810       0xbf ../../develop/sdk/trunk/sound/src/sound.lib(init.obj)
                0x0000000000101810                InitSound@4
                0x0000000000101874                CreateBuffer@12
                0x00000000001018a4                DestroyBuffer@4
 *fill*         0x00000000001018cf        0x1 
 .text          0x00000000001018d0       0x57 ../../develop/sdk/trunk/sound/src/sound.lib(setbuf.obj)
                0x00000000001018d0                SetBuffer@16
                0x00000000001018fc                PlayBuffer@8
 *fill*         0x0000000000101927        0x9 
 .text          0x0000000000101930       0x64 ../../develop/sdk/trunk/sound/src/sound.lib(sndgetsize.obj)
                0x0000000000101930                GetBufferSize@8
                0x0000000000101960                GetBufferFree@8
 *fill*         0x0000000000101994        0xc 
 .text          0x00000000001019a0       0x2b ../../develop/sdk/trunk/sound/src/sound.lib(stopbuf.obj)
                0x00000000001019a0                StopBuffer@4
 *fill*         0x00000000001019cb        0x1 
 .text          0x00000000001019cc        0x0 ../../../contrib/sdk/lib/libgcc.a(_start.o)
 *fill*         0x00000000001019cc        0x4 
 .text          0x00000000001019d0       0xe0 ../../../contrib/sdk/lib/libgcc.a(__main.o)
                0x00000000001019d0                __do_global_dtors
                0x0000000000101a20                __do_global_ctors
                0x0000000000101a90                __main
 .text          0x0000000000101ab0        0x0 ../../../contrib/sdk/lib/libgcc.a(_ctors.o)
 .text          0x0000000000101ab0       0x30 ../../../contrib/sdk/lib/libgcc.a(kos32-app.o)
                0x0000000000101ab0                __crt_startup
 .text          0x0000000000101ae0      0x240 ../../../contrib/sdk/lib/libgcc.a(libc-loader.o)
                0x0000000000101ae0                get_entry_point
                0x0000000000101af0                load_libc
 .text          0x0000000000101d20     0x13e0 ../../../contrib/sdk/lib/libgcc.a(unwind-dw2-fde.o)
                0x0000000000102cf0                __register_frame_info_bases
                0x0000000000102d20                __register_frame_info
                0x0000000000102d50                __register_frame
                0x0000000000102d90                __register_frame_info_table_bases
                0x0000000000102e10                __register_frame_info_table
                0x0000000000102e40                __register_frame_table
                0x0000000000102e80                __deregister_frame_info_bases
                0x0000000000102f70                __deregister_frame_info
                0x0000000000102f80                __deregister_frame
                0x0000000000102fb0                _Unwind_Find_FDE
 .text          0x0000000000103100      0x350 ../../../contrib/sdk/lib/libgcc.a(gthr-kos32.o)
                0x0000000000103100                __gthr_kos32_once
                0x0000000000103170                __gthr_kos32_key_create
                0x00000000001031a0                __gthr_kos32_key_delete
                0x00000000001031b0                __gthr_kos32_getspecific
                0x00000000001031d0                __gthr_kos32_setspecific
                0x00000000001031f0                __gthr_kos32_mutex_init_function
                0x0000000000103210                __gthr_kos32_mutex_destroy
                0x0000000000103230                __gthr_kos32_mutex_lock
                0x0000000000103270                __gthr_kos32_mutex_trylock
                0x00000000001032a0                __gthr_kos32_mutex_unlock
                0x00000000001032d0                __gthr_kos32_recursive_mutex_init_function
                0x0000000000103300                __gthr_kos32_recursive_mutex_lock
                0x0000000000103380                __gthr_kos32_recursive_mutex_trylock
                0x00000000001033e0                __gthr_kos32_recursive_mutex_unlock
                0x0000000000103430                __gthr_kos32_recursive_mutex_destroy
 .text          0x0000000000103450        0x8 ../../../contrib/sdk/lib/libc.dll.a(d000848.o)
                0x0000000000103450                vsprintf
 .text          0x0000000000103458        0x8 ../../../contrib/sdk/lib/libc.dll.a(d000847.o)
                0x0000000000103458                vsnprintf
 .text          0x0000000000103460        0x8 ../../../contrib/sdk/lib/libc.dll.a(d000842.o)
                0x0000000000103460                vprintf
 .text          0x0000000000103468        0x8 ../../../contrib/sdk/lib/libc.dll.a(d000836.o)
                0x0000000000103468                vfprintf
 .text          0x0000000000103470        0x8 ../../../contrib/sdk/lib/libc.dll.a(d000813.o)
                0x0000000000103470                toupper
 .text          0x0000000000103478        0x8 ../../../contrib/sdk/lib/libc.dll.a(d000807.o)
                0x0000000000103478                tls_free
 .text          0x0000000000103480        0x8 ../../../contrib/sdk/lib/libc.dll.a(d000806.o)
                0x0000000000103480                tls_alloc
 .text          0x0000000000103488        0x8 ../../../contrib/sdk/lib/libc.dll.a(d000785.o)
                0x0000000000103488                strtol
 .text          0x0000000000103490        0x8 ../../../contrib/sdk/lib/libc.dll.a(d000783.o)
                0x0000000000103490                strtok
 .text          0x0000000000103498        0x8 ../../../contrib/sdk/lib/libc.dll.a(d000779.o)
                0x0000000000103498                strspn
 .text          0x00000000001034a0        0x8 ../../../contrib/sdk/lib/libc.dll.a(d000773.o)
                0x00000000001034a0                strncpy
 .text          0x00000000001034a8        0x8 ../../../contrib/sdk/lib/libc.dll.a(d000772.o)
                0x00000000001034a8                strncmp
 .text          0x00000000001034b0        0x8 ../../../contrib/sdk/lib/libc.dll.a(d000770.o)
                0x00000000001034b0                strncasecmp
 .text          0x00000000001034b8        0x8 ../../../contrib/sdk/lib/libc.dll.a(d000768.o)
                0x00000000001034b8                strlen
 .text          0x00000000001034c0        0x8 ../../../contrib/sdk/lib/libc.dll.a(d000763.o)
                0x00000000001034c0                strerror
 .text          0x00000000001034c8        0x8 ../../../contrib/sdk/lib/libc.dll.a(d000762.o)
                0x00000000001034c8                strdup
 .text          0x00000000001034d0        0x8 ../../../contrib/sdk/lib/libc.dll.a(d000761.o)
                0x00000000001034d0                strcspn
 .text          0x00000000001034d8        0x8 ../../../contrib/sdk/lib/libc.dll.a(d000760.o)
                0x00000000001034d8                strcpy
 .text          0x00000000001034e0        0x8 ../../../contrib/sdk/lib/libc.dll.a(d000758.o)
                0x00000000001034e0                strcmp
 .text          0x00000000001034e8        0x8 ../../../contrib/sdk/lib/libc.dll.a(d000756.o)
                0x00000000001034e8                strchr
 .text          0x00000000001034f0        0x8 ../../../contrib/sdk/lib/libc.dll.a(d000753.o)
                0x00000000001034f0                strcasecmp
 .text          0x00000000001034f8        0x8 ../../../contrib/sdk/lib/libc.dll.a(d000750.o)
                0x00000000001034f8                stat
 .text          0x0000000000103500        0x8 ../../../contrib/sdk/lib/libc.dll.a(d000749.o)
                0x0000000000103500                sscanf
 .text          0x0000000000103508        0x8 ../../../contrib/sdk/lib/libc.dll.a(d000743.o)
                0x0000000000103508                sprintf
 .text          0x0000000000103510        0x8 ../../../contrib/sdk/lib/libc.dll.a(d000742.o)
                0x0000000000103510                snprintf
 .text          0x0000000000103518        0x8 ../../../contrib/sdk/lib/libc.dll.a(d000695.o)
                0x0000000000103518                realloc
 .text          0x0000000000103520        0x8 ../../../contrib/sdk/lib/libc.dll.a(d000694.o)
                0x0000000000103520                readdir
 .text          0x0000000000103528        0x8 ../../../contrib/sdk/lib/libc.dll.a(d000680.o)
                0x0000000000103528                puts
 .text          0x0000000000103530        0x8 ../../../contrib/sdk/lib/libc.dll.a(d000675.o)
                0x0000000000103530                printf
 .text          0x0000000000103538        0x8 ../../../contrib/sdk/lib/libc.dll.a(d000668.o)
                0x0000000000103538                opendir
 .text          0x0000000000103540        0x8 ../../../contrib/sdk/lib/libc.dll.a(d000649.o)
                0x0000000000103540                mkdir
 .text          0x0000000000103548        0x8 ../../../contrib/sdk/lib/libc.dll.a(d000645.o)
                0x0000000000103548                memmove
 .text          0x0000000000103550        0x8 ../../../contrib/sdk/lib/libc.dll.a(d000643.o)
                0x0000000000103550                memcpy
 .text          0x0000000000103558        0x8 ../../../contrib/sdk/lib/libc.dll.a(d000642.o)
                0x0000000000103558                memcmp
 .text          0x0000000000103560        0x8 ../../../contrib/sdk/lib/libc.dll.a(d000629.o)
                0x0000000000103560                malloc
 .text          0x0000000000103568        0x8 ../../../contrib/sdk/lib/libc.dll.a(d000564.o)
                0x0000000000103568                isprint
 .text          0x0000000000103570        0x8 ../../../contrib/sdk/lib/libc.dll.a(d000558.o)
                0x0000000000103570                isgraph
 .text          0x0000000000103578        0x8 ../../../contrib/sdk/lib/libc.dll.a(d000510.o)
                0x0000000000103578                fwrite
 .text          0x0000000000103580        0x8 ../../../contrib/sdk/lib/libc.dll.a(d000506.o)
                0x0000000000103580                ftello
 .text          0x0000000000103588        0x8 ../../../contrib/sdk/lib/libc.dll.a(d000502.o)
                0x0000000000103588                fseeko
 .text          0x0000000000103590        0x8 ../../../contrib/sdk/lib/libc.dll.a(d000501.o)
                0x0000000000103590                fseek
 .text          0x0000000000103598        0x8 ../../../contrib/sdk/lib/libc.dll.a(d000497.o)
                0x0000000000103598                freopen
 .text          0x00000000001035a0        0x8 ../../../contrib/sdk/lib/libc.dll.a(d000496.o)
                0x00000000001035a0                free
 .text          0x00000000001035a8        0x8 ../../../contrib/sdk/lib/libc.dll.a(d000494.o)
                0x00000000001035a8                fread
 .text          0x00000000001035b0        0x8 ../../../contrib/sdk/lib/libc.dll.a(d000488.o)
                0x00000000001035b0                fputs
 .text          0x00000000001035b8        0x8 ../../../contrib/sdk/lib/libc.dll.a(d000486.o)
                0x00000000001035b8                fputc
 .text          0x00000000001035c0        0x8 ../../../contrib/sdk/lib/libc.dll.a(d000484.o)
                0x00000000001035c0                fprintf
 .text          0x00000000001035c8        0x8 ../../../contrib/sdk/lib/libc.dll.a(d000482.o)
                0x00000000001035c8                fopen
 .text          0x00000000001035d0        0x8 ../../../contrib/sdk/lib/libc.dll.a(d000439.o)
                0x00000000001035d0                fclose
 .text          0x00000000001035d8        0x8 ../../../contrib/sdk/lib/libc.dll.a(d000427.o)
                0x00000000001035d8                exit
 .text          0x00000000001035e0        0x8 ../../../contrib/sdk/lib/libc.dll.a(d000379.o)
                0x00000000001035e0                closedir
 .text          0x00000000001035e8        0x8 ../../../contrib/sdk/lib/libc.dll.a(d000368.o)
                0x00000000001035e8                calloc
 .text          0x00000000001035f0        0x8 ../../../contrib/sdk/lib/libc.dll.a(d000360.o)
                0x00000000001035f0                atoi
 .text          0x00000000001035f8        0x8 ../../../contrib/sdk/lib/libc.dll.a(d000358.o)
                0x00000000001035f8                atexit
 .text          0x0000000000103600        0x8 ../../../contrib/sdk/lib/libc.dll.a(d000334.o)
                0x0000000000103600                abort
 .text          0x0000000000103608        0x8 ../../../contrib/sdk/lib/libc.dll.a(d000126.o)
                0x0000000000103608                _f_pow
 .text          0x0000000000103610        0x8 ../../../contrib/sdk/lib/libc.dll.a(d000082.o)
                0x0000000000103610                __swbuf_r
 .text          0x0000000000103618        0x8 ../../../contrib/sdk/lib/libc.dll.a(d000017.o)
                0x0000000000103618                __errno
 .text          0x0000000000103620        0x0 ../../../contrib/sdk/lib/libc.dll.a(d000012.o)
 .text          0x0000000000103620        0x8 ../../../contrib/sdk/lib/libc.dll.a(d000006.o)
                0x0000000000103620                __assert_func
 *(SORT(.text$*))
 *(.text.*)
 .text.unlikely
                0x0000000000103628        0x0 romload.o
 .text.unlikely
                0x0000000000103628        0x0 ckvp.o
 .text.unlikely
                0x0000000000103628        0x0 system.o
 .text.unlikely
                0x0000000000103628        0x0 fm.o
 .text.unlikely
                0x0000000000103628        0x0 decode.o
 .text.unlikely
                0x0000000000103628        0x0 main.o
 *fill*         0x0000000000103628        0x8 
 .text.startup  0x0000000000103630      0xfd0 main.o
                0x0000000000103630                main
 .text.unlikely
                0x0000000000104600        0x0 joystick.o
 .text.unlikely
                0x0000000000104600        0x0 mdfr.o
 .text.unlikely
                0x0000000000104600        0x0 rc.o
 .text.unlikely
                0x0000000000104600        0x0 myfm.o
 .text.unlikely
                0x0000000000104600        0x0 graph.o
 .text.unlikely
                0x0000000000104600        0x0 md.o
 .text.unlikely
                0x0000000000104600        0x0 mem.o
 .text.unlikely
                0x0000000000104600        0x0 ras.o
 .text.unlikely
                0x0000000000104600        0x0 vdp.o
 .text.unlikely
                0x0000000000104600        0x0 save.o
 .text.unlikely
                0x0000000000104600        0x0 getopt.o
 .text.unlikely
                0x0000000000104600        0x0 sn76496.o
 .text.unlikely
                0x0000000000104600        0x0 cpp_dep.o
 .text.unlikely
                0x0000000000104600        0x0 font.o
 .text.unlikely
                0x0000000000104600        0x0 sdl.o
 .text.unlikely
                0x0000000000104600        0x0 prompt.o
 .text.unlikely
                0x0000000000104600        0x0 scalebit.o
 .text.unlikely
                0x0000000000104600       0xfc scale2x.o
 .text.unlikely
                0x00000000001046fc       0x54 scale3x.o
 .text.unlikely
                0x0000000000104750        0x0 cz80.o
 .text.unlikely
                0x0000000000104750        0x0 m68kcpu.o
 .text.unlikely
                0x0000000000104750        0x0 m68kops.o
 .text.unlikely
                0x0000000000104750        0x0 ../../../contrib/sdk/lib/libSDLn.a(SDL.o)
 .text.unlikely
                0x0000000000104750        0x0 ../../../contrib/sdk/lib/libSDLn.a(SDL_error.o)
 .text.unlikely
                0x0000000000104750        0x0 ../../../contrib/sdk/lib/libSDLn.a(SDL_fatal.o)
 .text.unlikely
                0x0000000000104750        0x0 ../../../contrib/sdk/lib/libSDLn.a(SDL_getenv.o)
 .text.unlikely
                0x0000000000104750        0x0 ../../../contrib/sdk/lib/libSDLn.a(SDL_kolibri_audio.o)
 .text.unlikely
                0x0000000000104750        0x0 ../../../contrib/sdk/lib/libSDLn.a(SDL_events.o)
 .text.unlikely
                0x0000000000104750        0x0 ../../../contrib/sdk/lib/libSDLn.a(SDL_keyboard.o)
 .text.unlikely
                0x0000000000104750        0x0 ../../../contrib/sdk/lib/libSDLn.a(SDL_mouse.o)
 .text.unlikely
                0x0000000000104750        0x0 ../../../contrib/sdk/lib/libSDLn.a(SDL_quit.o)
 .text.unlikely
                0x0000000000104750        0x0 ../../../contrib/sdk/lib/libSDLn.a(SDL_sysmutex.o)
 .text.unlikely
                0x0000000000104750        0x0 ../../../contrib/sdk/lib/libSDLn.a(SDL_syssem.o)
 .text.unlikely
                0x0000000000104750        0x0 ../../../contrib/sdk/lib/libSDLn.a(SDL_systhread.o)
 .text.unlikely
                0x0000000000104750        0x0 ../../../contrib/sdk/lib/libSDLn.a(SDL_thread.o)
 .text.unlikely
                0x0000000000104750        0x0 ../../../contrib/sdk/lib/libSDLn.a(SDL_timer.o)
 .text.unlikely
                0x0000000000104750        0x0 ../../../contrib/sdk/lib/libSDLn.a(SDL_systimer.o)
 .text.unlikely
                0x0000000000104750        0x0 ../../../contrib/sdk/lib/libSDLn.a(SDL_cursor.o)
 .text.unlikely
                0x0000000000104750        0x0 ../../../contrib/sdk/lib/libSDLn.a(SDL_pixels.o)
 .text.unlikely
                0x0000000000104750        0x0 ../../../contrib/sdk/lib/libSDLn.a(SDL_surface.o)
 .text.unlikely
                0x0000000000104750        0x0 ../../../contrib/sdk/lib/libSDLn.a(SDL_video.o)
 .text.unlikely
                0x0000000000104750        0x0 ../../../contrib/sdk/lib/libSDLn.a(SDL_kolibri_video.o)
 .text.unlikely
                0x0000000000104750        0x0 ../../../contrib/sdk/lib/libSDLn.a(SDL_active.o)
 .text.unlikely
                0x0000000000104750        0x0 ../../../contrib/sdk/lib/libSDLn.a(SDL_resize.o)
 .text.unlikely
                0x0000000000104750        0x0 ../../../contrib/sdk/lib/libSDLn.a(SDL_RLEaccel.o)
 .text.unlikely
                0x0000000000104750        0x0 ../../../contrib/sdk/lib/libSDLn.a(SDL_blit.o)
 .text.unlikely
                0x0000000000104750        0x0 ../../../contrib/sdk/lib/libSDLn.a(SDL_blit_0.o)
 .text.unlikely
                0x0000000000104750        0x0 ../../../contrib/sdk/lib/libSDLn.a(SDL_blit_1.o)
 .text.unlikely
                0x0000000000104750        0x0 ../../../contrib/sdk/lib/libSDLn.a(SDL_blit_N.o)
 .text.unlikely
                0x0000000000104750        0x0 ../../../contrib/sdk/lib/libSDLn.a(SDL_kolibri_events.o)
 .text.unlikely
                0x0000000000104750        0x0 ../../../contrib/sdk/lib/libSDLn.a(SDL_blit_A.o)
 .text.unlikely
                0x0000000000104750        0x0 ../../../contrib/sdk/lib/libgcc.a(__main.o)
 .text.unlikely
                0x0000000000104750        0x0 ../../../contrib/sdk/lib/libgcc.a(kos32-app.o)
 .text.unlikely
                0x0000000000104750        0x0 ../../../contrib/sdk/lib/libgcc.a(libc-loader.o)
 .text.unlikely
                0x0000000000104750        0x0 ../../../contrib/sdk/lib/libgcc.a(unwind-dw2-fde.o)
 .text.unlikely
                0x0000000000104750        0x0 ../../../contrib/sdk/lib/libgcc.a(gthr-kos32.o)
 *(.glue_7t)
 *(.glue_7)
                0x0000000000104750                ___CTOR_LIST__ = .
                0x0000000000104750                __CTOR_LIST__ = .
                0x0000000000104750        0x4 LONG 0xffffffffffffffff
 *(.ctors)
 *(.ctor)
 *(SORT(.ctors.*))
                0x0000000000104754        0x4 LONG 0x0
                0x0000000000104758                ___DTOR_LIST__ = .
                0x0000000000104758                __DTOR_LIST__ = .
                0x0000000000104758        0x4 LONG 0xffffffffffffffff
 *(.dtors)
 *(.dtor)
 *(SORT(.dtors.*))
                0x000000000010475c        0x4 LONG 0x0
 *(.fini)
 *(.gcc_exc)
                [!provide]                        PROVIDE (etext, .)
 *(.gcc_except_table)

.rdata          0x0000000000104760    0x31c00
 *(.rdata)
 .rdata         0x0000000000104760       0x74 romload.o
 *fill*         0x00000000001047d4        0xc 
 .rdata         0x00000000001047e0     0x6660 ckvp.o
 .rdata         0x000000000010ae40      0x230 system.o
 *fill*         0x000000000010b070       0x10 
 .rdata         0x000000000010b080      0x5a0 fm.o
 .rdata         0x000000000010b620       0x20 decode.o
 .rdata         0x000000000010b640      0x93c main.o
 *fill*         0x000000000010bf7c        0x4 
 .rdata         0x000000000010bf80     0x13e0 rc.o
 .rdata         0x000000000010d360       0x10 myfm.o
 .rdata         0x000000000010d370      0x258 md.o
                0x000000000010d5b8                md::no_rom_size
                0x000000000010d5bc                md::no_rom
 *fill*         0x000000000010d5c8       0x18 
 .rdata         0x000000000010d5e0       0xe0 ras.o
 .rdata         0x000000000010d6c0       0xe8 save.o
 .rdata         0x000000000010d7a8      0x130 getopt.o
 .rdata         0x000000000010d8d8       0x30 sn76496.o
 *fill*         0x000000000010d908       0x18 
 .rdata         0x000000000010d920       0xe0 font.o
                0x000000000010d9c0                dgen_font
 .rdata         0x000000000010da00     0x10c0 dgenfont_8x13.o
 .rdata         0x000000000010eac0    0x1e0a0 sdl.o
 .rdata         0x000000000012cb60     0x3dc0 dgenfont_16x26.o
 .rdata         0x0000000000130920      0x8c0 dgenfont_7x5.o
 .rdata         0x00000000001311e0      0x580 prompt.o
 .rdata         0x0000000000131760       0x60 scalebit.o
 .rdata         0x00000000001317c0      0x118 scale2x.o
 .rdata         0x00000000001318d8       0x68 scale3x.o
 .rdata         0x0000000000131940      0xdd8 cz80.o
 *fill*         0x0000000000132718        0x8 
 .rdata         0x0000000000132720      0x180 m68kcpu.o
 .rdata         0x00000000001328a0       0x68 ../../../contrib/sdk/lib/libSDLn.a(SDL.o)
 .rdata         0x0000000000132908       0x94 ../../../contrib/sdk/lib/libSDLn.a(SDL_error.o)
 .rdata         0x000000000013299c      0x19c ../../../contrib/sdk/lib/libSDLn.a(SDL_kolibri_audio.o)
 .rdata         0x0000000000132b38       0x1c ../../../contrib/sdk/lib/libSDLn.a(SDL_events.o)
 .rdata         0x0000000000132b54      0x628 ../../../contrib/sdk/lib/libSDLn.a(SDL_keyboard.o)
 .rdata         0x000000000013317c       0x28 ../../../contrib/sdk/lib/libSDLn.a(SDL_syssem.o)
 .rdata         0x00000000001331a4       0x2c ../../../contrib/sdk/lib/libSDLn.a(SDL_systhread.o)
 .rdata         0x00000000001331d0       0xa8 ../../../contrib/sdk/lib/libSDLn.a(SDL_timer.o)
 .rdata         0x0000000000133278       0x2c ../../../contrib/sdk/lib/libSDLn.a(SDL_cursor.o)
 .rdata         0x00000000001332a4       0x6c ../../../contrib/sdk/lib/libSDLn.a(SDL_surface.o)
 .rdata         0x0000000000133310      0x1dc ../../../contrib/sdk/lib/libSDLn.a(SDL_video.o)
 .rdata         0x00000000001334ec       0x54 ../../../contrib/sdk/lib/libSDLn.a(SDL_kolibri_video.o)
 .rdata         0x0000000000133540       0x10 ../../../contrib/sdk/lib/libSDLn.a(SDL_RLEaccel.o)
 .rdata         0x0000000000133550       0x20 ../../../contrib/sdk/lib/libSDLn.a(SDL_blit.o)
 .rdata         0x0000000000133570       0x28 ../../../contrib/sdk/lib/libSDLn.a(SDL_blit_0.o)
 .rdata         0x0000000000133598      0x168 ../../../contrib/sdk/lib/libSDLn.a(SDL_blit_1.o)
 .rdata         0x0000000000133700     0x25c0 ../../../contrib/sdk/lib/libSDLn.a(SDL_blit_N.o)
 .rdata         0x0000000000135cc0      0x620 ../../../contrib/sdk/lib/libSDLn.a(SDL_kolibri_events.o)
 .rdata         0x00000000001362e0       0x20 ../../../contrib/sdk/lib/libSDLn.a(SDL_blit_A.o)
 .rdata         0x0000000000136300       0x18 ../../../contrib/sdk/lib/libgcc.a(libc-loader.o)
 .rdata         0x0000000000136318       0x34 ../../../contrib/sdk/lib/libgcc.a(unwind-dw2-fde.o)
 *(SORT(.rdata$*))
                0x000000000013634c                ___RUNTIME_PSEUDO_RELOC_LIST__ = .
                0x000000000013634c                __RUNTIME_PSEUDO_RELOC_LIST__ = .
 *(.rdata_runtime_pseudo_reloc)
                0x000000000013634c                ___RUNTIME_PSEUDO_RELOC_LIST_END__ = .
                0x000000000013634c                __RUNTIME_PSEUDO_RELOC_LIST_END__ = .

.CRT            0x0000000000136350        0x0
                0x0000000000136350                ___crt_xc_start__ = .
 *(SORT(.CRT$XC*))
                0x0000000000136350                ___crt_xc_end__ = .
                0x0000000000136350                ___crt_xi_start__ = .
 *(SORT(.CRT$XI*))
                0x0000000000136350                ___crt_xi_end__ = .
                0x0000000000136350                ___crt_xl_start__ = .
 *(SORT(.CRT$XL*))
                0x0000000000136350                ___crt_xp_start__ = .
 *(SORT(.CRT$XP*))
                0x0000000000136350                ___crt_xp_end__ = .
                0x0000000000136350                ___crt_xt_start__ = .
 *(SORT(.CRT$XT*))
                0x0000000000136350                ___crt_xt_end__ = .

.data           0x0000000000136350    0x16600
                [!provide]                        PROVIDE (__data_start__, .)
 *(.data)
 .data          0x0000000000136350        0x4 romload.o
 .data          0x0000000000136354        0x0 ckvp.o
 *fill*         0x0000000000136354        0xc 
 .data          0x0000000000136360       0x40 system.o
                0x0000000000136380                dgen_conf_dir
 .data          0x00000000001363a0        0x0 fm.o
 .data          0x00000000001363a0       0xa0 decode.o
 .data          0x0000000000136440      0x348 main.o
                0x0000000000136440                dgen_emu_m68k
                0x0000000000136444                dgen_emu_z80
                0x0000000000136448                dgen_vdp_sprites_boxing_bg
                0x000000000013644c                dgen_vdp_sprites_boxing_fg
                0x0000000000136450                dgen_doublebuffer
                0x0000000000136454                dgen_opengl_32bit
                0x0000000000136458                dgen_opengl_linear
                0x000000000013645c                dgen_opengl_stretch
                0x0000000000136460                dgen_opengl
                0x0000000000136464                dgen_depth
                0x0000000000136468                dgen_aspect
                0x000000000013646c                dgen_y_scale
                0x0000000000136470                dgen_x_scale
                0x0000000000136474                dgen_scale
                0x0000000000136478                dgen_height
                0x000000000013647c                dgen_width
                0x0000000000136480                dgen_info_height
                0x0000000000136484                dgen_fps
                0x0000000000136488                dgen_mouse_delay
                0x000000000013648c                dgen_joystick
                0x0000000000136490                dgen_region_order
                0x000000000013649c                dgen_region
                0x00000000001364a0                dgen_hz
                0x00000000001364a4                dgen_volume
                0x00000000001364a8                dgen_soundsegs
                0x00000000001364ac                dgen_soundrate
                0x00000000001364b0                dgen_sound
                0x00000000001364b4                dgen_rom_path
                0x00000000001364c0                dgen_frameskip
                0x00000000001364c4                dgen_autoconf
                0x00000000001364c8                dgen_load
                0x00000000001364d4                dgen_save
                0x00000000001364e0                dgen_slot_prev
                0x00000000001364ec                dgen_slot_next
                0x00000000001364f8                dgen_slot_9
                0x0000000000136504                dgen_slot_8
                0x0000000000136510                dgen_slot_7
                0x000000000013651c                dgen_slot_6
                0x0000000000136528                dgen_slot_5
                0x0000000000136534                dgen_slot_4
                0x0000000000136540                dgen_slot_3
                0x000000000013654c                dgen_slot_2
                0x0000000000136558                dgen_slot_1
                0x0000000000136564                dgen_slot_0
                0x0000000000136570                dgen_volume_dec
                0x000000000013657c                dgen_volume_inc
                0x0000000000136588                dgen_debug_enter
                0x0000000000136594                dgen_fullscreen_toggle
                0x00000000001365a0                dgen_game_genie
                0x00000000001365ac                dgen_prompt
                0x00000000001365b8                dgen_stop
                0x00000000001365c4                dgen_cpu_toggle
                0x00000000001365d0                dgen_z80_toggle
                0x00000000001365dc                dgen_reset
                0x00000000001365e8                dgen_screenshot
                0x00000000001365f4                dgen_scaling_toggle
                0x0000000000136600                dgen_craptv_toggle
                0x000000000013660c                dgen_quit
                0x0000000000136618                dgen_fix_checksum
                0x0000000000136624                pico_pen_delay
                0x0000000000136628                pico_pen_stride
                0x000000000013662c                pico_pen_button
                0x0000000000136638                pico_pen_right
                0x0000000000136644                pico_pen_left
                0x0000000000136650                pico_pen_down
                0x000000000013665c                pico_pen_up
                0x0000000000136668                pad2_start
                0x0000000000136674                pad2_mode
                0x0000000000136680                pad2_z
                0x000000000013668c                pad2_y
                0x0000000000136698                pad2_x
                0x00000000001366a4                pad2_c
                0x00000000001366b0                pad2_b
                0x00000000001366bc                pad2_a
                0x00000000001366c8                pad2_right
                0x00000000001366d4                pad2_left
                0x00000000001366e0                pad2_down
                0x00000000001366ec                pad2_up
                0x00000000001366f8                pad1_start
                0x0000000000136704                pad1_mode
                0x0000000000136710                pad1_z
                0x000000000013671c                pad1_y
                0x0000000000136728                pad1_x
                0x0000000000136734                pad1_c
                0x0000000000136740                pad1_b
                0x000000000013674c                pad1_a
                0x0000000000136758                pad1_right
                0x0000000000136764                pad1_left
                0x0000000000136770                pad1_down
                0x000000000013677c                pad1_up
 .data          0x0000000000136788        0x0 joystick.o
 .data          0x0000000000136788        0x0 mdfr.o
 *fill*         0x0000000000136788       0x18 
 .data          0x00000000001367a0     0x3660 rc.o
                0x0000000000136a20                rc_binding_head
                0x0000000000136a80                rc_fields
                0x0000000000139b00                rc_keysyms
                0x0000000000139d90                emu_m68k_names
                0x0000000000139da4                emu_z80_names
                0x0000000000139dc0                scaling_names
                0x0000000000139de0                ctv_names
 .data          0x0000000000139e00        0x0 myfm.o
 .data          0x0000000000139e00        0x0 graph.o
 .data          0x0000000000139e00       0x80 md.o
 .data          0x0000000000139e80        0x0 mem.o
 .data          0x0000000000139e80        0x0 ras.o
 .data          0x0000000000139e80        0x0 vdp.o
 .data          0x0000000000139e80        0x0 save.o
 .data          0x0000000000139e80        0x4 getopt.o
                0x0000000000139e80                opterr
 .data          0x0000000000139e84        0x0 sn76496.o
 .data          0x0000000000139e84        0x0 cpp_dep.o
 .data          0x0000000000139e84        0x0 font.o
 *fill*         0x0000000000139e84       0x1c 
 .data          0x0000000000139ea0      0x200 dgenfont_8x13.o
                0x0000000000139ea0                dgen_font_8x13
 .data          0x000000000013a0a0      0x6e0 sdl.o
                0x000000000013a658                pd_options
 .data          0x000000000013a780      0x200 dgenfont_16x26.o
                0x000000000013a780                dgen_font_16x26
 .data          0x000000000013a980      0x200 dgenfont_7x5.o
                0x000000000013a980                dgen_font_7x5
 .data          0x000000000013ab80        0x0 prompt.o
 .data          0x000000000013ab80        0x0 scalebit.o
 .data          0x000000000013ab80        0x0 scale2x.o
 .data          0x000000000013ab80        0x0 scale3x.o
 .data          0x000000000013ab80        0x0 cz80.o
 .data          0x000000000013ab80      0x6c0 m68kcpu.o
                0x000000000013ab80                m68ki_ea_idx_cycle_table
                0x000000000013abc0                m68ki_exception_cycle_table
                0x000000000013afc0                m68ki_shift_32_table
                0x000000000013b0e0                m68ki_shift_16_table
                0x000000000013b180                m68ki_shift_8_table
                0x000000000013b1e0                m68ki_cpu_names
 .data          0x000000000013b240     0x7b00 m68kops.o
 .data          0x0000000000142d40        0xc x86_tiles.o
 .data          0x0000000000142d4c     0x1aec x86-mz80.o
                0x0000000000142d4c                _mz80contextBegin
                0x0000000000142d9c                _z80pc
                0x0000000000142d9c                z80pc
                0x0000000000142d9c                z80pc_
                0x0000000000142da0                _z80nmiAddr
                0x0000000000142da4                _z80intAddr
                0x0000000000142da4                z80intAddr
 .data          0x0000000000144838     0x801c starcpu.o
                0x0000000000144838                _s68000context
 .data          0x000000000014c854        0x4 ../../../contrib/sdk/lib/libSDLn.a(SDL.o)
 .data          0x000000000014c858        0x0 ../../../contrib/sdk/lib/libSDLn.a(SDL_error.o)
 .data          0x000000000014c858        0x0 ../../../contrib/sdk/lib/libSDLn.a(SDL_fatal.o)
 .data          0x000000000014c858        0x0 ../../../contrib/sdk/lib/libSDLn.a(SDL_getenv.o)
 .data          0x000000000014c858        0x0 ../../../contrib/sdk/lib/libSDLn.a(SDL_kolibri_audio.o)
 .data          0x000000000014c858        0x0 ../../../contrib/sdk/lib/libSDLn.a(SDL_events.o)
 .data          0x000000000014c858        0x0 ../../../contrib/sdk/lib/libSDLn.a(SDL_keyboard.o)
 .data          0x000000000014c858        0x0 ../../../contrib/sdk/lib/libSDLn.a(SDL_mouse.o)
 .data          0x000000000014c858        0x0 ../../../contrib/sdk/lib/libSDLn.a(SDL_quit.o)
 .data          0x000000000014c858        0x0 ../../../contrib/sdk/lib/libSDLn.a(SDL_sysmutex.o)
 .data          0x000000000014c858        0x0 ../../../contrib/sdk/lib/libSDLn.a(SDL_syssem.o)
 .data          0x000000000014c858        0x0 ../../../contrib/sdk/lib/libSDLn.a(SDL_systhread.o)
 .data          0x000000000014c858        0x0 ../../../contrib/sdk/lib/libSDLn.a(SDL_thread.o)
 .data          0x000000000014c858        0x0 ../../../contrib/sdk/lib/libSDLn.a(SDL_timer.o)
 .data          0x000000000014c858        0x0 ../../../contrib/sdk/lib/libSDLn.a(SDL_systimer.o)
 *fill*         0x000000000014c858        0x8 
 .data          0x000000000014c860       0x60 ../../../contrib/sdk/lib/libSDLn.a(SDL_cursor.o)
 .data          0x000000000014c8c0        0x0 ../../../contrib/sdk/lib/libSDLn.a(SDL_pixels.o)
 .data          0x000000000014c8c0        0x0 ../../../contrib/sdk/lib/libSDLn.a(SDL_surface.o)
 .data          0x000000000014c8c0       0x20 ../../../contrib/sdk/lib/libSDLn.a(SDL_video.o)
 .data          0x000000000014c8e0       0x24 ../../../contrib/sdk/lib/libSDLn.a(SDL_kolibri_video.o)
                0x000000000014c8e0                kos_video_bootstrab
                0x000000000014c8f0                def_title
 .data          0x000000000014c904        0x0 ../../../contrib/sdk/lib/libSDLn.a(SDL_active.o)
 .data          0x000000000014c904        0x0 ../../../contrib/sdk/lib/libSDLn.a(SDL_resize.o)
 .data          0x000000000014c904        0x0 ../../../contrib/sdk/lib/libSDLn.a(SDL_RLEaccel.o)
 .data          0x000000000014c904        0x0 ../../../contrib/sdk/lib/libSDLn.a(SDL_blit.o)
 .data          0x000000000014c904        0x0 ../../../contrib/sdk/lib/libSDLn.a(SDL_blit_0.o)
 .data          0x000000000014c904        0x0 ../../../contrib/sdk/lib/libSDLn.a(SDL_blit_1.o)
 .data          0x000000000014c904        0x0 ../../../contrib/sdk/lib/libSDLn.a(SDL_blit_N.o)
 .data          0x000000000014c904        0x0 ../../../contrib/sdk/lib/libSDLn.a(SDL_kolibri_events.o)
 .data          0x000000000014c904        0x4 ../../../contrib/sdk/lib/libSDLn.a(x86_main.o)
 .data          0x000000000014c908        0x0 ../../../contrib/sdk/lib/libSDLn.a(SDL_blit_A.o)
 *fill*         0x000000000014c908        0x8 
 .data          0x000000000014c910       0x17 ../../develop/sdk/trunk/sound/src/sound.lib(init.obj)
                0x000000000014c910                hSound
                0x000000000014c914                hrdwSound
 *fill*         0x000000000014c927        0x1 
 .data          0x000000000014c928        0x0 ../../../contrib/sdk/lib/libgcc.a(_start.o)
 .data          0x000000000014c928        0x4 ../../../contrib/sdk/lib/libgcc.a(__main.o)
 .data          0x000000000014c92c        0x0 ../../../contrib/sdk/lib/libgcc.a(_ctors.o)
 .data          0x000000000014c92c        0x0 ../../../contrib/sdk/lib/libgcc.a(kos32-app.o)
 .data          0x000000000014c92c        0x0 ../../../contrib/sdk/lib/libgcc.a(libc-loader.o)
 .data          0x000000000014c92c        0x8 ../../../contrib/sdk/lib/libgcc.a(unwind-dw2-fde.o)
 .data          0x000000000014c934        0x0 ../../../contrib/sdk/lib/libgcc.a(gthr-kos32.o)
 *(.data2)
 *(SORT(.data$*))
 *(.jcr)
                0x000000000014c934                __CRT_MT = .
                0x000000000014c934        0x4 LONG 0x1
                [!provide]                        PROVIDE (__data_end__, .)
 *(.data_cygwin_nocopy)
                0x000000000014c938                ___iend = .

.eh_frame       0x000000000014c940      0x830
                0x000000000014c940                PROVIDE (___EH_FRAME_BEGIN__, .)
 *(.eh_frame*)
 .eh_frame      0x000000000014c940       0x68 ../../../contrib/sdk/lib/libgcc.a(__main.o)
 .eh_frame      0x000000000014c9a8       0x34 ../../../contrib/sdk/lib/libgcc.a(kos32-app.o)
 .eh_frame      0x000000000014c9dc       0x6c ../../../contrib/sdk/lib/libgcc.a(libc-loader.o)
 .eh_frame      0x000000000014ca48      0x4f0 ../../../contrib/sdk/lib/libgcc.a(unwind-dw2-fde.o)
 .eh_frame      0x000000000014cf38      0x230 ../../../contrib/sdk/lib/libgcc.a(gthr-kos32.o)
                0x000000000014d168                ___FRAME_END__ = .
                0x000000000014d168        0x4 LONG 0x0

.idata          0x000000000014d170      0x5c0
                0x000000000014d170                __idata_start = .
 SORT(*)(.idata$2)
 .idata$2       0x000000000014d170       0x14 ../../../contrib/sdk/lib/libc.dll.a(d000000.o)
                0x000000000014d170                _head_libc_dll
 SORT(*)(.idata$3)
                0x000000000014d184        0x4 LONG 0x0
                0x000000000014d188        0x4 LONG 0x0
                0x000000000014d18c        0x4 LONG 0x0
                0x000000000014d190        0x4 LONG 0x0
                0x000000000014d194        0x4 LONG 0x0
 SORT(*)(.idata$4)
 .idata$4       0x000000000014d198        0x0 ../../../contrib/sdk/lib/libc.dll.a(d000000.o)
 .idata$4       0x000000000014d198        0x4 ../../../contrib/sdk/lib/libc.dll.a(d000006.o)
 .idata$4       0x000000000014d19c        0x4 ../../../contrib/sdk/lib/libc.dll.a(d000012.o)
 .idata$4       0x000000000014d1a0        0x4 ../../../contrib/sdk/lib/libc.dll.a(d000017.o)
 .idata$4       0x000000000014d1a4        0x4 ../../../contrib/sdk/lib/libc.dll.a(d000082.o)
 .idata$4       0x000000000014d1a8        0x4 ../../../contrib/sdk/lib/libc.dll.a(d000126.o)
 .idata$4       0x000000000014d1ac        0x4 ../../../contrib/sdk/lib/libc.dll.a(d000334.o)
 .idata$4       0x000000000014d1b0        0x4 ../../../contrib/sdk/lib/libc.dll.a(d000358.o)
 .idata$4       0x000000000014d1b4        0x4 ../../../contrib/sdk/lib/libc.dll.a(d000360.o)
 .idata$4       0x000000000014d1b8        0x4 ../../../contrib/sdk/lib/libc.dll.a(d000368.o)
 .idata$4       0x000000000014d1bc        0x4 ../../../contrib/sdk/lib/libc.dll.a(d000379.o)
 .idata$4       0x000000000014d1c0        0x4 ../../../contrib/sdk/lib/libc.dll.a(d000427.o)
 .idata$4       0x000000000014d1c4        0x4 ../../../contrib/sdk/lib/libc.dll.a(d000439.o)
 .idata$4       0x000000000014d1c8        0x4 ../../../contrib/sdk/lib/libc.dll.a(d000482.o)
 .idata$4       0x000000000014d1cc        0x4 ../../../contrib/sdk/lib/libc.dll.a(d000484.o)
 .idata$4       0x000000000014d1d0        0x4 ../../../contrib/sdk/lib/libc.dll.a(d000486.o)
 .idata$4       0x000000000014d1d4        0x4 ../../../contrib/sdk/lib/libc.dll.a(d000488.o)
 .idata$4       0x000000000014d1d8        0x4 ../../../contrib/sdk/lib/libc.dll.a(d000494.o)
 .idata$4       0x000000000014d1dc        0x4 ../../../contrib/sdk/lib/libc.dll.a(d000496.o)
 .idata$4       0x000000000014d1e0        0x4 ../../../contrib/sdk/lib/libc.dll.a(d000497.o)
 .idata$4       0x000000000014d1e4        0x4 ../../../contrib/sdk/lib/libc.dll.a(d000501.o)
 .idata$4       0x000000000014d1e8        0x4 ../../../contrib/sdk/lib/libc.dll.a(d000502.o)
 .idata$4       0x000000000014d1ec        0x4 ../../../contrib/sdk/lib/libc.dll.a(d000506.o)
 .idata$4       0x000000000014d1f0        0x4 ../../../contrib/sdk/lib/libc.dll.a(d000510.o)
 .idata$4       0x000000000014d1f4        0x4 ../../../contrib/sdk/lib/libc.dll.a(d000558.o)
 .idata$4       0x000000000014d1f8        0x4 ../../../contrib/sdk/lib/libc.dll.a(d000564.o)
 .idata$4       0x000000000014d1fc        0x4 ../../../contrib/sdk/lib/libc.dll.a(d000629.o)
 .idata$4       0x000000000014d200        0x4 ../../../contrib/sdk/lib/libc.dll.a(d000642.o)
 .idata$4       0x000000000014d204        0x4 ../../../contrib/sdk/lib/libc.dll.a(d000643.o)
 .idata$4       0x000000000014d208        0x4 ../../../contrib/sdk/lib/libc.dll.a(d000645.o)
 .idata$4       0x000000000014d20c        0x4 ../../../contrib/sdk/lib/libc.dll.a(d000649.o)
 .idata$4       0x000000000014d210        0x4 ../../../contrib/sdk/lib/libc.dll.a(d000668.o)
 .idata$4       0x000000000014d214        0x4 ../../../contrib/sdk/lib/libc.dll.a(d000675.o)
 .idata$4       0x000000000014d218        0x4 ../../../contrib/sdk/lib/libc.dll.a(d000680.o)
 .idata$4       0x000000000014d21c        0x4 ../../../contrib/sdk/lib/libc.dll.a(d000694.o)
 .idata$4       0x000000000014d220        0x4 ../../../contrib/sdk/lib/libc.dll.a(d000695.o)
 .idata$4       0x000000000014d224        0x4 ../../../contrib/sdk/lib/libc.dll.a(d000742.o)
 .idata$4       0x000000000014d228        0x4 ../../../contrib/sdk/lib/libc.dll.a(d000743.o)
 .idata$4       0x000000000014d22c        0x4 ../../../contrib/sdk/lib/libc.dll.a(d000749.o)
 .idata$4       0x000000000014d230        0x4 ../../../contrib/sdk/lib/libc.dll.a(d000750.o)
 .idata$4       0x000000000014d234        0x4 ../../../contrib/sdk/lib/libc.dll.a(d000753.o)
 .idata$4       0x000000000014d238        0x4 ../../../contrib/sdk/lib/libc.dll.a(d000756.o)
 .idata$4       0x000000000014d23c        0x4 ../../../contrib/sdk/lib/libc.dll.a(d000758.o)
 .idata$4       0x000000000014d240        0x4 ../../../contrib/sdk/lib/libc.dll.a(d000760.o)
 .idata$4       0x000000000014d244        0x4 ../../../contrib/sdk/lib/libc.dll.a(d000761.o)
 .idata$4       0x000000000014d248        0x4 ../../../contrib/sdk/lib/libc.dll.a(d000762.o)
 .idata$4       0x000000000014d24c        0x4 ../../../contrib/sdk/lib/libc.dll.a(d000763.o)
 .idata$4       0x000000000014d250        0x4 ../../../contrib/sdk/lib/libc.dll.a(d000768.o)
 .idata$4       0x000000000014d254        0x4 ../../../contrib/sdk/lib/libc.dll.a(d000770.o)
 .idata$4       0x000000000014d258        0x4 ../../../contrib/sdk/lib/libc.dll.a(d000772.o)
 .idata$4       0x000000000014d25c        0x4 ../../../contrib/sdk/lib/libc.dll.a(d000773.o)
 .idata$4       0x000000000014d260        0x4 ../../../contrib/sdk/lib/libc.dll.a(d000779.o)
 .idata$4       0x000000000014d264        0x4 ../../../contrib/sdk/lib/libc.dll.a(d000783.o)
 .idata$4       0x000000000014d268        0x4 ../../../contrib/sdk/lib/libc.dll.a(d000785.o)
 .idata$4       0x000000000014d26c        0x4 ../../../contrib/sdk/lib/libc.dll.a(d000806.o)
 .idata$4       0x000000000014d270        0x4 ../../../contrib/sdk/lib/libc.dll.a(d000807.o)
 .idata$4       0x000000000014d274        0x4 ../../../contrib/sdk/lib/libc.dll.a(d000813.o)
 .idata$4       0x000000000014d278        0x4 ../../../contrib/sdk/lib/libc.dll.a(d000836.o)
 .idata$4       0x000000000014d27c        0x4 ../../../contrib/sdk/lib/libc.dll.a(d000842.o)
 .idata$4       0x000000000014d280        0x4 ../../../contrib/sdk/lib/libc.dll.a(d000847.o)
 .idata$4       0x000000000014d284        0x4 ../../../contrib/sdk/lib/libc.dll.a(d000848.o)
 .idata$4       0x000000000014d288        0x4 ../../../contrib/sdk/lib/libc.dll.a(d000911.o)
 SORT(*)(.idata$5)
 .idata$5       0x000000000014d28c        0x0 ../../../contrib/sdk/lib/libc.dll.a(d000000.o)
 .idata$5       0x000000000014d28c        0x4 ../../../contrib/sdk/lib/libc.dll.a(d000006.o)
                0x000000000014d28c                _imp____assert_func
 .idata$5       0x000000000014d290        0x4 ../../../contrib/sdk/lib/libc.dll.a(d000012.o)
                0x000000000014d290                _imp____ctype_ptr__
 .idata$5       0x000000000014d294        0x4 ../../../contrib/sdk/lib/libc.dll.a(d000017.o)
                0x000000000014d294                _imp____errno
 .idata$5       0x000000000014d298        0x4 ../../../contrib/sdk/lib/libc.dll.a(d000082.o)
                0x000000000014d298                _imp____swbuf_r
 .idata$5       0x000000000014d29c        0x4 ../../../contrib/sdk/lib/libc.dll.a(d000126.o)
                0x000000000014d29c                _imp___f_pow
 .idata$5       0x000000000014d2a0        0x4 ../../../contrib/sdk/lib/libc.dll.a(d000334.o)
                0x000000000014d2a0                _imp__abort
 .idata$5       0x000000000014d2a4        0x4 ../../../contrib/sdk/lib/libc.dll.a(d000358.o)
                0x000000000014d2a4                _imp__atexit
 .idata$5       0x000000000014d2a8        0x4 ../../../contrib/sdk/lib/libc.dll.a(d000360.o)
                0x000000000014d2a8                _imp__atoi
 .idata$5       0x000000000014d2ac        0x4 ../../../contrib/sdk/lib/libc.dll.a(d000368.o)
                0x000000000014d2ac                _imp__calloc
 .idata$5       0x000000000014d2b0        0x4 ../../../contrib/sdk/lib/libc.dll.a(d000379.o)
                0x000000000014d2b0                _imp__closedir
 .idata$5       0x000000000014d2b4        0x4 ../../../contrib/sdk/lib/libc.dll.a(d000427.o)
                0x000000000014d2b4                _imp__exit
 .idata$5       0x000000000014d2b8        0x4 ../../../contrib/sdk/lib/libc.dll.a(d000439.o)
                0x000000000014d2b8                _imp__fclose
 .idata$5       0x000000000014d2bc        0x4 ../../../contrib/sdk/lib/libc.dll.a(d000482.o)
                0x000000000014d2bc                _imp__fopen
 .idata$5       0x000000000014d2c0        0x4 ../../../contrib/sdk/lib/libc.dll.a(d000484.o)
                0x000000000014d2c0                _imp__fprintf
 .idata$5       0x000000000014d2c4        0x4 ../../../contrib/sdk/lib/libc.dll.a(d000486.o)
                0x000000000014d2c4                _imp__fputc
 .idata$5       0x000000000014d2c8        0x4 ../../../contrib/sdk/lib/libc.dll.a(d000488.o)
                0x000000000014d2c8                _imp__fputs
 .idata$5       0x000000000014d2cc        0x4 ../../../contrib/sdk/lib/libc.dll.a(d000494.o)
                0x000000000014d2cc                _imp__fread
 .idata$5       0x000000000014d2d0        0x4 ../../../contrib/sdk/lib/libc.dll.a(d000496.o)
                0x000000000014d2d0                _imp__free
 .idata$5       0x000000000014d2d4        0x4 ../../../contrib/sdk/lib/libc.dll.a(d000497.o)
                0x000000000014d2d4                _imp__freopen
 .idata$5       0x000000000014d2d8        0x4 ../../../contrib/sdk/lib/libc.dll.a(d000501.o)
                0x000000000014d2d8                _imp__fseek
 .idata$5       0x000000000014d2dc        0x4 ../../../contrib/sdk/lib/libc.dll.a(d000502.o)
                0x000000000014d2dc                _imp__fseeko
 .idata$5       0x000000000014d2e0        0x4 ../../../contrib/sdk/lib/libc.dll.a(d000506.o)
                0x000000000014d2e0                _imp__ftello
 .idata$5       0x000000000014d2e4        0x4 ../../../contrib/sdk/lib/libc.dll.a(d000510.o)
                0x000000000014d2e4                _imp__fwrite
 .idata$5       0x000000000014d2e8        0x4 ../../../contrib/sdk/lib/libc.dll.a(d000558.o)
                0x000000000014d2e8                _imp__isgraph
 .idata$5       0x000000000014d2ec        0x4 ../../../contrib/sdk/lib/libc.dll.a(d000564.o)
                0x000000000014d2ec                _imp__isprint
 .idata$5       0x000000000014d2f0        0x4 ../../../contrib/sdk/lib/libc.dll.a(d000629.o)
                0x000000000014d2f0                _imp__malloc
 .idata$5       0x000000000014d2f4        0x4 ../../../contrib/sdk/lib/libc.dll.a(d000642.o)
                0x000000000014d2f4                _imp__memcmp
 .idata$5       0x000000000014d2f8        0x4 ../../../contrib/sdk/lib/libc.dll.a(d000643.o)
                0x000000000014d2f8                _imp__memcpy
 .idata$5       0x000000000014d2fc        0x4 ../../../contrib/sdk/lib/libc.dll.a(d000645.o)
                0x000000000014d2fc                _imp__memmove
 .idata$5       0x000000000014d300        0x4 ../../../contrib/sdk/lib/libc.dll.a(d000649.o)
                0x000000000014d300                _imp__mkdir
 .idata$5       0x000000000014d304        0x4 ../../../contrib/sdk/lib/libc.dll.a(d000668.o)
                0x000000000014d304                _imp__opendir
 .idata$5       0x000000000014d308        0x4 ../../../contrib/sdk/lib/libc.dll.a(d000675.o)
                0x000000000014d308                _imp__printf
 .idata$5       0x000000000014d30c        0x4 ../../../contrib/sdk/lib/libc.dll.a(d000680.o)
                0x000000000014d30c                _imp__puts
 .idata$5       0x000000000014d310        0x4 ../../../contrib/sdk/lib/libc.dll.a(d000694.o)
                0x000000000014d310                _imp__readdir
 .idata$5       0x000000000014d314        0x4 ../../../contrib/sdk/lib/libc.dll.a(d000695.o)
                0x000000000014d314                _imp__realloc
 .idata$5       0x000000000014d318        0x4 ../../../contrib/sdk/lib/libc.dll.a(d000742.o)
                0x000000000014d318                _imp__snprintf
 .idata$5       0x000000000014d31c        0x4 ../../../contrib/sdk/lib/libc.dll.a(d000743.o)
                0x000000000014d31c                _imp__sprintf
 .idata$5       0x000000000014d320        0x4 ../../../contrib/sdk/lib/libc.dll.a(d000749.o)
                0x000000000014d320                _imp__sscanf
 .idata$5       0x000000000014d324        0x4 ../../../contrib/sdk/lib/libc.dll.a(d000750.o)
                0x000000000014d324                _imp__stat
 .idata$5       0x000000000014d328        0x4 ../../../contrib/sdk/lib/libc.dll.a(d000753.o)
                0x000000000014d328                _imp__strcasecmp
 .idata$5       0x000000000014d32c        0x4 ../../../contrib/sdk/lib/libc.dll.a(d000756.o)
                0x000000000014d32c                _imp__strchr
 .idata$5       0x000000000014d330        0x4 ../../../contrib/sdk/lib/libc.dll.a(d000758.o)
                0x000000000014d330                _imp__strcmp
 .idata$5       0x000000000014d334        0x4 ../../../contrib/sdk/lib/libc.dll.a(d000760.o)
                0x000000000014d334                _imp__strcpy
 .idata$5       0x000000000014d338        0x4 ../../../contrib/sdk/lib/libc.dll.a(d000761.o)
                0x000000000014d338                _imp__strcspn
 .idata$5       0x000000000014d33c        0x4 ../../../contrib/sdk/lib/libc.dll.a(d000762.o)
                0x000000000014d33c                _imp__strdup
 .idata$5       0x000000000014d340        0x4 ../../../contrib/sdk/lib/libc.dll.a(d000763.o)
                0x000000000014d340                _imp__strerror
 .idata$5       0x000000000014d344        0x4 ../../../contrib/sdk/lib/libc.dll.a(d000768.o)
                0x000000000014d344                _imp__strlen
 .idata$5       0x000000000014d348        0x4 ../../../contrib/sdk/lib/libc.dll.a(d000770.o)
                0x000000000014d348                _imp__strncasecmp
 .idata$5       0x000000000014d34c        0x4 ../../../contrib/sdk/lib/libc.dll.a(d000772.o)
                0x000000000014d34c                _imp__strncmp
 .idata$5       0x000000000014d350        0x4 ../../../contrib/sdk/lib/libc.dll.a(d000773.o)
                0x000000000014d350                _imp__strncpy
 .idata$5       0x000000000014d354        0x4 ../../../contrib/sdk/lib/libc.dll.a(d000779.o)
                0x000000000014d354                _imp__strspn
 .idata$5       0x000000000014d358        0x4 ../../../contrib/sdk/lib/libc.dll.a(d000783.o)
                0x000000000014d358                _imp__strtok
 .idata$5       0x000000000014d35c        0x4 ../../../contrib/sdk/lib/libc.dll.a(d000785.o)
                0x000000000014d35c                _imp__strtol
 .idata$5       0x000000000014d360        0x4 ../../../contrib/sdk/lib/libc.dll.a(d000806.o)
                0x000000000014d360                _imp__tls_alloc
 .idata$5       0x000000000014d364        0x4 ../../../contrib/sdk/lib/libc.dll.a(d000807.o)
                0x000000000014d364                _imp__tls_free
 .idata$5       0x000000000014d368        0x4 ../../../contrib/sdk/lib/libc.dll.a(d000813.o)
                0x000000000014d368                _imp__toupper
 .idata$5       0x000000000014d36c        0x4 ../../../contrib/sdk/lib/libc.dll.a(d000836.o)
                0x000000000014d36c                _imp__vfprintf
 .idata$5       0x000000000014d370        0x4 ../../../contrib/sdk/lib/libc.dll.a(d000842.o)
                0x000000000014d370                _imp__vprintf
 .idata$5       0x000000000014d374        0x4 ../../../contrib/sdk/lib/libc.dll.a(d000847.o)
                0x000000000014d374                _imp__vsnprintf
 .idata$5       0x000000000014d378        0x4 ../../../contrib/sdk/lib/libc.dll.a(d000848.o)
                0x000000000014d378                _imp__vsprintf
 .idata$5       0x000000000014d37c        0x4 ../../../contrib/sdk/lib/libc.dll.a(d000911.o)
 SORT(*)(.idata$6)
 .idata$6       0x000000000014d380       0x10 ../../../contrib/sdk/lib/libc.dll.a(d000006.o)
 .idata$6       0x000000000014d390       0x10 ../../../contrib/sdk/lib/libc.dll.a(d000012.o)
                0x000000000014d390                _nm____ctype_ptr__
 .idata$6       0x000000000014d3a0        0xc ../../../contrib/sdk/lib/libc.dll.a(d000017.o)
 .idata$6       0x000000000014d3ac        0xc ../../../contrib/sdk/lib/libc.dll.a(d000082.o)
 .idata$6       0x000000000014d3b8        0xc ../../../contrib/sdk/lib/libc.dll.a(d000126.o)
 .idata$6       0x000000000014d3c4        0x8 ../../../contrib/sdk/lib/libc.dll.a(d000334.o)
 .idata$6       0x000000000014d3cc        0xc ../../../contrib/sdk/lib/libc.dll.a(d000358.o)
 .idata$6       0x000000000014d3d8        0x8 ../../../contrib/sdk/lib/libc.dll.a(d000360.o)
 .idata$6       0x000000000014d3e0        0xc ../../../contrib/sdk/lib/libc.dll.a(d000368.o)
 .idata$6       0x000000000014d3ec        0xc ../../../contrib/sdk/lib/libc.dll.a(d000379.o)
 .idata$6       0x000000000014d3f8        0x8 ../../../contrib/sdk/lib/libc.dll.a(d000427.o)
 .idata$6       0x000000000014d400        0xc ../../../contrib/sdk/lib/libc.dll.a(d000439.o)
 .idata$6       0x000000000014d40c        0x8 ../../../contrib/sdk/lib/libc.dll.a(d000482.o)
 .idata$6       0x000000000014d414        0xc ../../../contrib/sdk/lib/libc.dll.a(d000484.o)
 .idata$6       0x000000000014d420        0x8 ../../../contrib/sdk/lib/libc.dll.a(d000486.o)
 .idata$6       0x000000000014d428        0x8 ../../../contrib/sdk/lib/libc.dll.a(d000488.o)
 .idata$6       0x000000000014d430        0x8 ../../../contrib/sdk/lib/libc.dll.a(d000494.o)
 .idata$6       0x000000000014d438        0x8 ../../../contrib/sdk/lib/libc.dll.a(d000496.o)
 .idata$6       0x000000000014d440        0xc ../../../contrib/sdk/lib/libc.dll.a(d000497.o)
 .idata$6       0x000000000014d44c        0x8 ../../../contrib/sdk/lib/libc.dll.a(d000501.o)
 .idata$6       0x000000000014d454        0xc ../../../contrib/sdk/lib/libc.dll.a(d000502.o)
 .idata$6       0x000000000014d460        0xc ../../../contrib/sdk/lib/libc.dll.a(d000506.o)
 .idata$6       0x000000000014d46c        0xc ../../../contrib/sdk/lib/libc.dll.a(d000510.o)
 .idata$6       0x000000000014d478        0xc ../../../contrib/sdk/lib/libc.dll.a(d000558.o)
 .idata$6       0x000000000014d484        0xc ../../../contrib/sdk/lib/libc.dll.a(d000564.o)
 .idata$6       0x000000000014d490        0xc ../../../contrib/sdk/lib/libc.dll.a(d000629.o)
 .idata$6       0x000000000014d49c        0xc ../../../contrib/sdk/lib/libc.dll.a(d000642.o)
 .idata$6       0x000000000014d4a8        0xc ../../../contrib/sdk/lib/libc.dll.a(d000643.o)
 .idata$6       0x000000000014d4b4        0xc ../../../contrib/sdk/lib/libc.dll.a(d000645.o)
 .idata$6       0x000000000014d4c0        0x8 ../../../contrib/sdk/lib/libc.dll.a(d000649.o)
 .idata$6       0x000000000014d4c8        0xc ../../../contrib/sdk/lib/libc.dll.a(d000668.o)
 .idata$6       0x000000000014d4d4        0xc ../../../contrib/sdk/lib/libc.dll.a(d000675.o)
 .idata$6       0x000000000014d4e0        0x8 ../../../contrib/sdk/lib/libc.dll.a(d000680.o)
 .idata$6       0x000000000014d4e8        0xc ../../../contrib/sdk/lib/libc.dll.a(d000694.o)
 .idata$6       0x000000000014d4f4        0xc ../../../contrib/sdk/lib/libc.dll.a(d000695.o)
 .idata$6       0x000000000014d500        0xc ../../../contrib/sdk/lib/libc.dll.a(d000742.o)
 .idata$6       0x000000000014d50c        0xc ../../../contrib/sdk/lib/libc.dll.a(d000743.o)
 .idata$6       0x000000000014d518        0xc ../../../contrib/sdk/lib/libc.dll.a(d000749.o)
 .idata$6       0x000000000014d524        0x8 ../../../contrib/sdk/lib/libc.dll.a(d000750.o)
 .idata$6       0x000000000014d52c       0x10 ../../../contrib/sdk/lib/libc.dll.a(d000753.o)
 .idata$6       0x000000000014d53c        0xc ../../../contrib/sdk/lib/libc.dll.a(d000756.o)
 .idata$6       0x000000000014d548        0xc ../../../contrib/sdk/lib/libc.dll.a(d000758.o)
 .idata$6       0x000000000014d554        0xc ../../../contrib/sdk/lib/libc.dll.a(d000760.o)
 .idata$6       0x000000000014d560        0xc ../../../contrib/sdk/lib/libc.dll.a(d000761.o)
 .idata$6       0x000000000014d56c        0xc ../../../contrib/sdk/lib/libc.dll.a(d000762.o)
 .idata$6       0x000000000014d578        0xc ../../../contrib/sdk/lib/libc.dll.a(d000763.o)
 .idata$6       0x000000000014d584        0xc ../../../contrib/sdk/lib/libc.dll.a(d000768.o)
 .idata$6       0x000000000014d590       0x10 ../../../contrib/sdk/lib/libc.dll.a(d000770.o)
 .idata$6       0x000000000014d5a0        0xc ../../../contrib/sdk/lib/libc.dll.a(d000772.o)
 .idata$6       0x000000000014d5ac        0xc ../../../contrib/sdk/lib/libc.dll.a(d000773.o)
 .idata$6       0x000000000014d5b8        0xc ../../../contrib/sdk/lib/libc.dll.a(d000779.o)
 .idata$6       0x000000000014d5c4        0xc ../../../contrib/sdk/lib/libc.dll.a(d000783.o)
 .idata$6       0x000000000014d5d0        0xc ../../../contrib/sdk/lib/libc.dll.a(d000785.o)
 .idata$6       0x000000000014d5dc        0xc ../../../contrib/sdk/lib/libc.dll.a(d000806.o)
 .idata$6       0x000000000014d5e8        0xc ../../../contrib/sdk/lib/libc.dll.a(d000807.o)
 .idata$6       0x000000000014d5f4        0xc ../../../contrib/sdk/lib/libc.dll.a(d000813.o)
 .idata$6       0x000000000014d600        0xc ../../../contrib/sdk/lib/libc.dll.a(d000836.o)
 .idata$6       0x000000000014d60c        0xc ../../../contrib/sdk/lib/libc.dll.a(d000842.o)
 .idata$6       0x000000000014d618        0xc ../../../contrib/sdk/lib/libc.dll.a(d000847.o)
 .idata$6       0x000000000014d624        0xc ../../../contrib/sdk/lib/libc.dll.a(d000848.o)
 SORT(*)(.idata$7)
 .idata$7       0x000000000014d630        0x4 ../../../contrib/sdk/lib/libc.dll.a(d000006.o)
 .idata$7       0x000000000014d634        0x4 ../../../contrib/sdk/lib/libc.dll.a(d000012.o)
 .idata$7       0x000000000014d638        0x4 ../../../contrib/sdk/lib/libc.dll.a(d000017.o)
 .idata$7       0x000000000014d63c        0x4 ../../../contrib/sdk/lib/libc.dll.a(d000082.o)
 .idata$7       0x000000000014d640        0x4 ../../../contrib/sdk/lib/libc.dll.a(d000126.o)
 .idata$7       0x000000000014d644        0x4 ../../../contrib/sdk/lib/libc.dll.a(d000334.o)
 .idata$7       0x000000000014d648        0x4 ../../../contrib/sdk/lib/libc.dll.a(d000358.o)
 .idata$7       0x000000000014d64c        0x4 ../../../contrib/sdk/lib/libc.dll.a(d000360.o)
 .idata$7       0x000000000014d650        0x4 ../../../contrib/sdk/lib/libc.dll.a(d000368.o)
 .idata$7       0x000000000014d654        0x4 ../../../contrib/sdk/lib/libc.dll.a(d000379.o)
 .idata$7       0x000000000014d658        0x4 ../../../contrib/sdk/lib/libc.dll.a(d000427.o)
 .idata$7       0x000000000014d65c        0x4 ../../../contrib/sdk/lib/libc.dll.a(d000439.o)
 .idata$7       0x000000000014d660        0x4 ../../../contrib/sdk/lib/libc.dll.a(d000482.o)
 .idata$7       0x000000000014d664        0x4 ../../../contrib/sdk/lib/libc.dll.a(d000484.o)
 .idata$7       0x000000000014d668        0x4 ../../../contrib/sdk/lib/libc.dll.a(d000486.o)
 .idata$7       0x000000000014d66c        0x4 ../../../contrib/sdk/lib/libc.dll.a(d000488.o)
 .idata$7       0x000000000014d670        0x4 ../../../contrib/sdk/lib/libc.dll.a(d000494.o)
 .idata$7       0x000000000014d674        0x4 ../../../contrib/sdk/lib/libc.dll.a(d000496.o)
 .idata$7       0x000000000014d678        0x4 ../../../contrib/sdk/lib/libc.dll.a(d000497.o)
 .idata$7       0x000000000014d67c        0x4 ../../../contrib/sdk/lib/libc.dll.a(d000501.o)
 .idata$7       0x000000000014d680        0x4 ../../../contrib/sdk/lib/libc.dll.a(d000502.o)
 .idata$7       0x000000000014d684        0x4 ../../../contrib/sdk/lib/libc.dll.a(d000506.o)
 .idata$7       0x000000000014d688        0x4 ../../../contrib/sdk/lib/libc.dll.a(d000510.o)
 .idata$7       0x000000000014d68c        0x4 ../../../contrib/sdk/lib/libc.dll.a(d000558.o)
 .idata$7       0x000000000014d690        0x4 ../../../contrib/sdk/lib/libc.dll.a(d000564.o)
 .idata$7       0x000000000014d694        0x4 ../../../contrib/sdk/lib/libc.dll.a(d000629.o)
 .idata$7       0x000000000014d698        0x4 ../../../contrib/sdk/lib/libc.dll.a(d000642.o)
 .idata$7       0x000000000014d69c        0x4 ../../../contrib/sdk/lib/libc.dll.a(d000643.o)
 .idata$7       0x000000000014d6a0        0x4 ../../../contrib/sdk/lib/libc.dll.a(d000645.o)
 .idata$7       0x000000000014d6a4        0x4 ../../../contrib/sdk/lib/libc.dll.a(d000649.o)
 .idata$7       0x000000000014d6a8        0x4 ../../../contrib/sdk/lib/libc.dll.a(d000668.o)
 .idata$7       0x000000000014d6ac        0x4 ../../../contrib/sdk/lib/libc.dll.a(d000675.o)
 .idata$7       0x000000000014d6b0        0x4 ../../../contrib/sdk/lib/libc.dll.a(d000680.o)
 .idata$7       0x000000000014d6b4        0x4 ../../../contrib/sdk/lib/libc.dll.a(d000694.o)
 .idata$7       0x000000000014d6b8        0x4 ../../../contrib/sdk/lib/libc.dll.a(d000695.o)
 .idata$7       0x000000000014d6bc        0x4 ../../../contrib/sdk/lib/libc.dll.a(d000742.o)
 .idata$7       0x000000000014d6c0        0x4 ../../../contrib/sdk/lib/libc.dll.a(d000743.o)
 .idata$7       0x000000000014d6c4        0x4 ../../../contrib/sdk/lib/libc.dll.a(d000749.o)
 .idata$7       0x000000000014d6c8        0x4 ../../../contrib/sdk/lib/libc.dll.a(d000750.o)
 .idata$7       0x000000000014d6cc        0x4 ../../../contrib/sdk/lib/libc.dll.a(d000753.o)
 .idata$7       0x000000000014d6d0        0x4 ../../../contrib/sdk/lib/libc.dll.a(d000756.o)
 .idata$7       0x000000000014d6d4        0x4 ../../../contrib/sdk/lib/libc.dll.a(d000758.o)
 .idata$7       0x000000000014d6d8        0x4 ../../../contrib/sdk/lib/libc.dll.a(d000760.o)
 .idata$7       0x000000000014d6dc        0x4 ../../../contrib/sdk/lib/libc.dll.a(d000761.o)
 .idata$7       0x000000000014d6e0        0x4 ../../../contrib/sdk/lib/libc.dll.a(d000762.o)
 .idata$7       0x000000000014d6e4        0x4 ../../../contrib/sdk/lib/libc.dll.a(d000763.o)
 .idata$7       0x000000000014d6e8        0x4 ../../../contrib/sdk/lib/libc.dll.a(d000768.o)
 .idata$7       0x000000000014d6ec        0x4 ../../../contrib/sdk/lib/libc.dll.a(d000770.o)
 .idata$7       0x000000000014d6f0        0x4 ../../../contrib/sdk/lib/libc.dll.a(d000772.o)
 .idata$7       0x000000000014d6f4        0x4 ../../../contrib/sdk/lib/libc.dll.a(d000773.o)
 .idata$7       0x000000000014d6f8        0x4 ../../../contrib/sdk/lib/libc.dll.a(d000779.o)
 .idata$7       0x000000000014d6fc        0x4 ../../../contrib/sdk/lib/libc.dll.a(d000783.o)
 .idata$7       0x000000000014d700        0x4 ../../../contrib/sdk/lib/libc.dll.a(d000785.o)
 .idata$7       0x000000000014d704        0x4 ../../../contrib/sdk/lib/libc.dll.a(d000806.o)
 .idata$7       0x000000000014d708        0x4 ../../../contrib/sdk/lib/libc.dll.a(d000807.o)
 .idata$7       0x000000000014d70c        0x4 ../../../contrib/sdk/lib/libc.dll.a(d000813.o)
 .idata$7       0x000000000014d710        0x4 ../../../contrib/sdk/lib/libc.dll.a(d000836.o)
 .idata$7       0x000000000014d714        0x4 ../../../contrib/sdk/lib/libc.dll.a(d000842.o)
 .idata$7       0x000000000014d718        0x4 ../../../contrib/sdk/lib/libc.dll.a(d000847.o)
 .idata$7       0x000000000014d71c        0x4 ../../../contrib/sdk/lib/libc.dll.a(d000848.o)
 .idata$7       0x000000000014d720        0xc ../../../contrib/sdk/lib/libc.dll.a(d000911.o)
                0x000000000014d720                libc_dll_iname
                0x000000000014d72c                __idata_end = .

bss             0x000000000014d730   0x10fd40
 *(.bss)
 .bss           0x000000000014d730        0x0 romload.o
 .bss           0x000000000014d730        0x0 ckvp.o
 .bss           0x000000000014d730        0x0 system.o
 *fill*         0x000000000014d730       0x10 
 .bss           0x000000000014d740    0x278a0 fm.o
 .bss           0x0000000000174fe0        0x0 decode.o
 .bss           0x0000000000174fe0    0x10060 main.o
                0x0000000000174fe0                slot
                0x0000000000174fe4                debug_log
                0x0000000000174fe8                dgen_vdp_sprites_boxing
                0x0000000000174fec                dgen_vdp_hide_sprites
                0x0000000000174ff0                dgen_vdp_hide_plane_w
                0x0000000000174ff4                dgen_vdp_hide_plane_b
                0x0000000000174ff8                dgen_vdp_hide_plane_a
                0x0000000000174ffc                dgen_screen_thread
                0x0000000000175000                dgen_opengl_square
                0x0000000000175004                dgen_swab
                0x0000000000175008                dgen_fullscreen
                0x000000000017500c                dgen_buttons
                0x0000000000175010                dgen_nice
                0x0000000000175014                dgen_scaling
                0x0000000000175018                dgen_craptv
                0x000000000017501c                dgen_raw_screenshots
                0x0000000000175020                dgen_pal
                0x0000000000175024                dgen_mjazz
                0x0000000000175028                dgen_soundsamples
                0x000000000017502c                dgen_show_carthead
                0x0000000000175030                dgen_autosave
                0x0000000000175034                dgen_autoload
 .bss           0x0000000000185040        0x0 joystick.o
 .bss           0x0000000000185040       0x10 mdfr.o
                0x0000000000185040                md::md_mz80
                0x0000000000185044                md::md_star
                0x0000000000185048                md::md_musa
 .bss           0x0000000000185050        0x8 rc.o
                0x0000000000185050                rc_str_list
 .bss           0x0000000000185058        0x0 myfm.o
 .bss           0x0000000000185058        0x0 graph.o
 .bss           0x0000000000185058        0x4 md.o
                0x0000000000185058                md::lock
 .bss           0x000000000018505c        0x0 mem.o
 .bss           0x000000000018505c        0x4 ras.o
                0x000000000018505c                pal_dirty
 .bss           0x0000000000185060        0x0 vdp.o
 .bss           0x0000000000185060        0x0 save.o
 .bss           0x0000000000185060       0x1c getopt.o
                0x0000000000185060                optopt
                0x0000000000185064                optind
                0x0000000000185068                optarg
 *fill*         0x000000000018507c        0x4 
 .bss           0x0000000000185080      0x2e0 sn76496.o
 .bss           0x0000000000185360        0x0 cpp_dep.o
 .bss           0x0000000000185360        0x0 font.o
 .bss           0x0000000000185360        0x0 dgenfont_8x13.o
 .bss           0x0000000000185360     0xabc0 sdl.o
                0x0000000000185360                pd_freeze
                0x0000000000185364                sndi
                0x000000000018536c                mdpal
                0x0000000000185370                mdscr
 .bss           0x000000000018ff20        0x0 dgenfont_16x26.o
 .bss           0x000000000018ff20        0x0 dgenfont_7x5.o
 .bss           0x000000000018ff20        0x0 prompt.o
 .bss           0x000000000018ff20        0x0 scalebit.o
 .bss           0x000000000018ff20        0x0 scale2x.o
 .bss           0x000000000018ff20        0x0 scale3x.o
 .bss           0x000000000018ff20      0x500 cz80.o
 .bss           0x0000000000190420        0xc m68kcpu.o
                0x0000000000190420                m68ki_tracing
                0x0000000000190424                m68ki_remaining_cycles
 .bss           0x000000000019042c        0x0 m68kops.o
 .bss           0x000000000019042c    0x40000 starcpu.o
 .bss           0x00000000001d042c        0x8 ../../../contrib/sdk/lib/libSDLn.a(SDL.o)
 *fill*         0x00000000001d0434        0xc 
 .bss           0x00000000001d0440      0xb20 ../../../contrib/sdk/lib/libSDLn.a(SDL_error.o)
 .bss           0x00000000001d0f60        0x0 ../../../contrib/sdk/lib/libSDLn.a(SDL_fatal.o)
 .bss           0x00000000001d0f60        0x4 ../../../contrib/sdk/lib/libSDLn.a(SDL_getenv.o)
 *fill*         0x00000000001d0f64       0x1c 
 .bss           0x00000000001d0f80     0xa440 ../../../contrib/sdk/lib/libSDLn.a(SDL_kolibri_audio.o)
 .bss           0x00000000001db3c0      0xe40 ../../../contrib/sdk/lib/libSDLn.a(SDL_events.o)
                0x00000000001db3c0                SDL_EventOK
 .bss           0x00000000001dc200      0x6a0 ../../../contrib/sdk/lib/libSDLn.a(SDL_keyboard.o)
                0x00000000001dc200                SDL_TranslateUNICODE
 .bss           0x00000000001dc8a0        0xc ../../../contrib/sdk/lib/libSDLn.a(SDL_mouse.o)
 .bss           0x00000000001dc8ac        0x0 ../../../contrib/sdk/lib/libSDLn.a(SDL_quit.o)
 .bss           0x00000000001dc8ac        0x0 ../../../contrib/sdk/lib/libSDLn.a(SDL_sysmutex.o)
 .bss           0x00000000001dc8ac        0x0 ../../../contrib/sdk/lib/libSDLn.a(SDL_syssem.o)
 .bss           0x00000000001dc8ac        0x0 ../../../contrib/sdk/lib/libSDLn.a(SDL_systhread.o)
 *fill*         0x00000000001dc8ac       0x14 
 .bss           0x00000000001dc8c0      0x340 ../../../contrib/sdk/lib/libSDLn.a(SDL_thread.o)
                0x00000000001dc8c0                _creating_thread_lock
 .bss           0x00000000001dcc00       0x20 ../../../contrib/sdk/lib/libSDLn.a(SDL_timer.o)
                0x00000000001dcc00                SDL_alarm_interval
                0x00000000001dcc04                SDL_timer_running
                0x00000000001dcc08                SDL_timer_started
 .bss           0x00000000001dcc20        0x4 ../../../contrib/sdk/lib/libSDLn.a(SDL_systimer.o)
 .bss           0x00000000001dcc24       0x18 ../../../contrib/sdk/lib/libSDLn.a(SDL_cursor.o)
                0x00000000001dcc24                SDL_cursorlock
                0x00000000001dcc28                SDL_cursor
                0x00000000001dcc2c                SDL_cursorstate
 .bss           0x00000000001dcc3c        0x0 ../../../contrib/sdk/lib/libSDLn.a(SDL_pixels.o)
 .bss           0x00000000001dcc3c        0x0 ../../../contrib/sdk/lib/libSDLn.a(SDL_surface.o)
 .bss           0x00000000001dcc3c        0x4 ../../../contrib/sdk/lib/libSDLn.a(SDL_video.o)
                0x00000000001dcc3c                current_video
 .bss           0x00000000001dcc40       0x14 ../../../contrib/sdk/lib/libSDLn.a(SDL_kolibri_video.o)
                0x00000000001dcc40                screen_size
 .bss           0x00000000001dcc54        0x4 ../../../contrib/sdk/lib/libSDLn.a(SDL_active.o)
 .bss           0x00000000001dcc58        0x8 ../../../contrib/sdk/lib/libSDLn.a(SDL_resize.o)
 .bss           0x00000000001dcc60        0x0 ../../../contrib/sdk/lib/libSDLn.a(SDL_RLEaccel.o)
 .bss           0x00000000001dcc60        0x0 ../../../contrib/sdk/lib/libSDLn.a(SDL_blit.o)
 .bss           0x00000000001dcc60        0x0 ../../../contrib/sdk/lib/libSDLn.a(SDL_blit_0.o)
 .bss           0x00000000001dcc60        0x0 ../../../contrib/sdk/lib/libSDLn.a(SDL_blit_1.o)
 .bss           0x00000000001dcc60        0x0 ../../../contrib/sdk/lib/libSDLn.a(SDL_blit_N.o)
 .bss           0x00000000001dcc60        0xc ../../../contrib/sdk/lib/libSDLn.a(SDL_kolibri_events.o)
 .bss           0x00000000001dcc6c        0x0 ../../../contrib/sdk/lib/libSDLn.a(SDL_blit_A.o)
 .bss           0x00000000001dcc6c        0x0 ../../../contrib/sdk/lib/libgcc.a(_start.o)
 .bss           0x00000000001dcc6c       0x20 ../../../contrib/sdk/lib/libgcc.a(__main.o)
 .bss           0x00000000001dcc8c        0x0 ../../../contrib/sdk/lib/libgcc.a(_ctors.o)
 .bss           0x00000000001dcc8c        0x0 ../../../contrib/sdk/lib/libgcc.a(kos32-app.o)
 .bss           0x00000000001dcc8c        0x0 ../../../contrib/sdk/lib/libgcc.a(libc-loader.o)
 .bss           0x00000000001dcc8c       0x1c ../../../contrib/sdk/lib/libgcc.a(unwind-dw2-fde.o)
 .bss           0x00000000001dcca8        0x0 ../../../contrib/sdk/lib/libgcc.a(gthr-kos32.o)
 *(COMMON)
 *fill*         0x00000000001dcca8       0x18 
 COMMON         0x00000000001dccc0       0x94 cz80.o
                0x00000000001dccc0                CZ80
 *fill*         0x00000000001dcd54        0xc 
 COMMON         0x00000000001dcd60      0x190 m68kcpu.o
                0x00000000001dcd60                m68ki_aerr_address
                0x00000000001dcd64                m68ki_initial_cycles
                0x00000000001dcd68                m68ki_address_space
                0x00000000001dcd6c                m68ki_aerr_write_mode
                0x00000000001dcd70                m68ki_aerr_fc
                0x00000000001dcd80                m68ki_cpu
 *fill*         0x00000000001dcef0       0x10 
 COMMON         0x00000000001dcf00    0x80000 m68kops.o
                0x00000000001dcf00                m68ki_cycles
                0x000000000021cf00                m68ki_instruction_jump_table
 COMMON         0x000000000025cf00       0x20 ../../../contrib/sdk/lib/libSDLn.a(SDL_events.o)
                0x000000000025cf00                SDL_ProcessEvents
 COMMON         0x000000000025cf20       0x24 ../../../contrib/sdk/lib/libSDLn.a(SDL_keyboard.o)
                0x000000000025cf20                SDL_KeyRepeat
 COMMON         0x000000000025cf44        0x4 ../../../contrib/sdk/lib/libSDLn.a(SDL_timer.o)
                0x000000000025cf44                SDL_alarm_callback
 COMMON         0x000000000025cf48       0x10 ../../../contrib/sdk/lib/libgcc.a(_ctors.o)
                0x000000000025cf60                . = ALIGN (0x10)
 *fill*         0x000000000025cf58        0x8 
                0x000000000025cf60                ___cmdline = .
                0x000000000025d060                . = (. + 0x100)
 *fill*         0x000000000025cf60      0x100 
                0x000000000025d060                ___pgmname = .
                0x000000000025d470                . = ((. + 0x400) + 0x10)
 *fill*         0x000000000025d060      0x410 
                0x000000000025d470                ___stacktop = .
                0x000000000025d470                ___memsize = .

/DISCARD/
 *(.debug$S)
 *(.debug$T)
 *(.debug$F)
 *(.drectve)
 *(.note.GNU-stack)
 *(.comment)
 *(.debug_abbrev)
 *(.debug_info)
 *(.debug_line)
 *(.debug_frame)
 *(.debug_loc)
 *(.debug_pubnames)
 *(.debug_aranges)
 *(.debug_ranges)
LOAD romload.o
LOAD ckvp.o
LOAD system.o
LOAD fm.o
LOAD decode.o
LOAD main.o
LOAD joystick.o
LOAD mdfr.o
LOAD rc.o
LOAD myfm.o
LOAD graph.o
LOAD md.o
LOAD mem.o
LOAD ras.o
LOAD vdp.o
LOAD save.o
LOAD getopt.o
LOAD sn76496.o
LOAD cpp_dep.o
LOAD font.o
LOAD dgenfont_8x13.o
LOAD sdl.o
LOAD dgenfont_16x26.o
LOAD dgenfont_7x5.o
LOAD prompt.o
LOAD scalebit.o
LOAD scale2x.o
LOAD scale3x.o
LOAD cz80.o
LOAD m68kcpu.o
LOAD m68kops.o
LOAD x86_memcpy.o
LOAD x86_ctv.o
LOAD x86_mmx_memcpy.o
LOAD x86_tiles.o
LOAD x86-mz80.o
LOAD starcpu.o
LOAD ../../../contrib/sdk/lib/libSDLn.a
LOAD ../../develop/sdk/trunk/sound/src/sound.lib
LOAD ../../../contrib/sdk/lib/libgcc.a
LOAD ../../../contrib/sdk/lib/libc.dll.a
OUTPUT(dgen pei-i386)
